
build/telosb/main.exe:     file format elf32-msp430


Disassembly of section .text:

00004000 <__watchdog_support>:
    4000:	55 42 20 01 	mov.b	&0x0120,r5	
    4004:	35 d0 08 5a 	bis	#23048,	r5	;#0x5a08
    4008:	82 45 46 13 	mov	r5,	&0x1346	

0000400c <__init_stack>:
    400c:	31 40 00 39 	mov	#14592,	r1	;#0x3900

00004010 <__do_copy_data>:
    4010:	3f 40 1e 00 	mov	#30,	r15	;#0x001e
    4014:	0f 93       	tst	r15		
    4016:	08 24       	jz	$+18     	;abs 0x4028
    4018:	92 42 46 13 20 01 	mov	&0x1346,&0x0120	
    401e:	2f 83       	decd	r15		
    4020:	9f 4f 16 62 00 11 	mov	25110(r15),4352(r15);0x6216(r15), 0x1100(r15)
    4026:	f8 23       	jnz	$-14     	;abs 0x4018

00004028 <__do_clear_bss>:
    4028:	3f 40 28 02 	mov	#552,	r15	;#0x0228
    402c:	0f 93       	tst	r15		
    402e:	07 24       	jz	$+16     	;abs 0x403e
    4030:	92 42 46 13 20 01 	mov	&0x1346,&0x0120	
    4036:	1f 83       	dec	r15		
    4038:	cf 43 1e 11 	mov.b	#0,	4382(r15);r3 As==00, 0x111e(r15)
    403c:	f9 23       	jnz	$-12     	;abs 0x4030

0000403e <main>:
    403e:	21 83       	decd	r1		
    4040:	b0 12 66 45 	call	#0x4566	
    4044:	47 4f       	mov.b	r15,	r7	
    4046:	3d 40 0c 00 	mov	#12,	r13	;#0x000c
    404a:	3e 40 ff 00 	mov	#255,	r14	;#0x00ff
    404e:	3f 40 4c 11 	mov	#4428,	r15	;#0x114c
    4052:	b0 12 ae 57 	call	#0x57ae	
    4056:	f2 43 08 13 	mov.b	#-1,	&0x1308	;r3 As==11
    405a:	f2 43 43 13 	mov.b	#-1,	&0x1343	;r3 As==11
    405e:	b2 40 80 5a 20 01 	mov	#23168,	&0x0120	;#0x5a80
    4064:	a2 42 60 01 	mov	#4,	&0x0160	;r2 As==10
    4068:	82 43 2e 01 	mov	#0,	&0x012e	;r3 As==00
    406c:	a2 42 80 01 	mov	#4,	&0x0180	;r2 As==10
    4070:	82 43 1e 01 	mov	#0,	&0x011e	;r3 As==00
    4074:	b2 40 20 02 60 01 	mov	#544,	&0x0160	;#0x0220
    407a:	b2 40 20 01 80 01 	mov	#288,	&0x0180	;#0x0120
    4080:	f2 40 84 ff 57 00 	mov.b	#-124,	&0x0057	;#0xff84
    4086:	c2 43 58 00 	mov.b	#0,	&0x0058	;r3 As==00
    408a:	b2 40 00 40 82 01 	mov	#16384,	&0x0182	;#0x4000
    4090:	3b 40 0c 00 	mov	#12,	r11	;#0x000c
    4094:	3d 40 00 08 	mov	#2048,	r13	;#0x0800
    4098:	0e 43       	clr	r14		
    409a:	0c 4e       	mov	r14,	r12	
    409c:	0c dd       	bis	r13,	r12	
    409e:	59 42 57 00 	mov.b	&0x0057,r9	
    40a2:	0a 4c       	mov	r12,	r10	
    40a4:	8a 10       	swpb	r10		
    40a6:	7a f0 07 00 	and.b	#7,	r10	;#0x0007
    40aa:	79 f0 f8 ff 	and.b	#-8,	r9	;#0xfff8
    40ae:	4a d9       	bis.b	r9,	r10	
    40b0:	c2 4a 57 00 	mov.b	r10,	&0x0057	
    40b4:	c2 4c 56 00 	mov.b	r12,	&0x0056	
    40b8:	79 40 03 00 	mov.b	#3,	r9	;#0x0003
    40bc:	0a 43       	clr	r10		
    40be:	08 43       	clr	r8		
    40c0:	0f 3c       	jmp	$+32     	;abs 0x40e0
    40c2:	18 42 90 01 	mov	&0x0190,r8	
    40c6:	38 52       	add	#8,	r8	;r2 As==11
    40c8:	82 48 92 01 	mov	r8,	&0x0192	
    40cc:	b2 f0 fe ff 82 01 	and	#-2,	&0x0182	;#0xfffe
    40d2:	92 b3 82 01 	bit	#1,	&0x0182	;r3 As==01
    40d6:	fd 27       	jz	$-4      	;abs 0x40d2
    40d8:	1f 42 70 01 	mov	&0x0170,r15	
    40dc:	08 4a       	mov	r10,	r8	
    40de:	0a 4f       	mov	r15,	r10	
    40e0:	79 53       	add.b	#-1,	r9	;r3 As==11
    40e2:	ef 23       	jnz	$-32     	;abs 0x40c2
    40e4:	0a 88       	sub	r8,	r10	
    40e6:	3a 90 01 04 	cmp	#1025,	r10	;#0x0401
    40ea:	01 2c       	jc	$+4      	;abs 0x40ee
    40ec:	0e 4c       	mov	r12,	r14	
    40ee:	0d 11       	rra	r13		
    40f0:	3b 53       	add	#-1,	r11	;r3 As==11
    40f2:	d3 23       	jnz	$-88     	;abs 0x409a
    40f4:	0f 4e       	mov	r14,	r15	
    40f6:	3f f0 e0 00 	and	#224,	r15	;#0x00e0
    40fa:	3f 90 e0 00 	cmp	#224,	r15	;#0x00e0
    40fe:	02 20       	jnz	$+6      	;abs 0x4104
    4100:	3e f0 e0 ff 	and	#-32,	r14	;#0xffe0
    4104:	5c 42 57 00 	mov.b	&0x0057,r12	
    4108:	0d 4e       	mov	r14,	r13	
    410a:	8d 10       	swpb	r13		
    410c:	7d f0 07 00 	and.b	#7,	r13	;#0x0007
    4110:	7c f0 f8 ff 	and.b	#-8,	r12	;#0xfff8
    4114:	4d dc       	bis.b	r12,	r13	
    4116:	c2 4d 57 00 	mov.b	r13,	&0x0057	
    411a:	c2 4e 56 00 	mov.b	r14,	&0x0056	
    411e:	5e 42 57 00 	mov.b	&0x0057,r14	
    4122:	7e f0 07 00 	and.b	#7,	r14	;#0x0007
    4126:	7e d0 80 ff 	bis.b	#-128,	r14	;#0xff80
    412a:	c2 4e 57 00 	mov.b	r14,	&0x0057	
    412e:	e2 42 58 00 	mov.b	#4,	&0x0058	;r2 As==10
    4132:	f2 f0 fd ff 00 00 	and.b	#-3,	&0x0000	;#0xfffd
    4138:	82 43 70 01 	mov	#0,	&0x0170	;r3 As==00
    413c:	b2 40 02 02 60 01 	mov	#514,	&0x0160	;#0x0202
    4142:	82 43 90 01 	mov	#0,	&0x0190	;r3 As==00
    4146:	b2 40 02 01 80 01 	mov	#258,	&0x0180	;#0x0102
    414c:	1e 42 60 01 	mov	&0x0160,r14	
    4150:	3e f0 cf ff 	and	#-49,	r14	;#0xffcf
    4154:	3e d0 20 00 	bis	#32,	r14	;#0x0020
    4158:	82 4e 60 01 	mov	r14,	&0x0160	
    415c:	1e 42 80 01 	mov	&0x0180,r14	
    4160:	3e f0 cf ff 	and	#-49,	r14	;#0xffcf
    4164:	3e d0 20 00 	bis	#32,	r14	;#0x0020
    4168:	82 4e 80 01 	mov	r14,	&0x0180	
    416c:	c2 43 26 00 	mov.b	#0,	&0x0026	;r3 As==00
    4170:	c2 43 2e 00 	mov.b	#0,	&0x002e	;r3 As==00
    4174:	c2 43 1b 00 	mov.b	#0,	&0x001b	;r3 As==00
    4178:	c2 43 1f 00 	mov.b	#0,	&0x001f	;r3 As==00
    417c:	c2 43 33 00 	mov.b	#0,	&0x0033	;r3 As==00
    4180:	c2 43 37 00 	mov.b	#0,	&0x0037	;r3 As==00
    4184:	c2 43 21 00 	mov.b	#0,	&0x0021	;r3 As==00
    4188:	f2 40 e0 ff 22 00 	mov.b	#-32,	&0x0022	;#0xffe0
    418e:	f2 40 30 00 29 00 	mov.b	#48,	&0x0029	;#0x0030
    4194:	f2 40 7b 00 2a 00 	mov.b	#123,	&0x002a	;#0x007b
    419a:	c2 43 19 00 	mov.b	#0,	&0x0019	;r3 As==00
    419e:	f2 40 f1 ff 1a 00 	mov.b	#-15,	&0x001a	;#0xfff1
    41a4:	f2 40 dd ff 1d 00 	mov.b	#-35,	&0x001d	;#0xffdd
    41aa:	f2 40 fd ff 1e 00 	mov.b	#-3,	&0x001e	;#0xfffd
    41b0:	f2 43 31 00 	mov.b	#-1,	&0x0031	;r3 As==11
    41b4:	f2 43 32 00 	mov.b	#-1,	&0x0032	;r3 As==11
    41b8:	c2 43 35 00 	mov.b	#0,	&0x0035	;r3 As==00
    41bc:	f2 43 36 00 	mov.b	#-1,	&0x0036	;r3 As==11
    41c0:	c2 43 25 00 	mov.b	#0,	&0x0025	;r3 As==00
    41c4:	c2 43 2d 00 	mov.b	#0,	&0x002d	;r3 As==00
    41c8:	1f 42 70 01 	mov	&0x0170,r15	
    41cc:	1e 42 70 01 	mov	&0x0170,r14	
    41d0:	0e 8f       	sub	r15,	r14	
    41d2:	3e 90 01 28 	cmp	#10241,	r14	;#0x2801
    41d6:	fa 2b       	jnc	$-10     	;abs 0x41cc
    41d8:	e2 d3 1a 00 	bis.b	#2,	&0x001a	;r3 As==10
    41dc:	f2 d2 1a 00 	bis.b	#8,	&0x001a	;r2 As==11
    41e0:	f2 d0 80 ff 1e 00 	bis.b	#-128,	&0x001e	;#0xff80
    41e6:	f2 d0 10 00 1e 00 	bis.b	#16,	&0x001e	;#0x0010
    41ec:	f2 d0 80 ff 1d 00 	bis.b	#-128,	&0x001d	;#0xff80
    41f2:	f2 d0 10 00 1d 00 	bis.b	#16,	&0x001d	;#0x0010
    41f8:	03 43       	nop			
    41fa:	03 43       	nop			
    41fc:	f2 f0 ef ff 1d 00 	and.b	#-17,	&0x001d	;#0xffef
    4202:	f2 f0 f7 ff 19 00 	and.b	#-9,	&0x0019	;#0xfff7
    4208:	5f 43       	mov.b	#1,	r15	;r3 As==01
    420a:	b0 12 6e 44 	call	#0x446e	
    420e:	4f 43       	clr.b	r15		
    4210:	b0 12 6e 44 	call	#0x446e	
    4214:	5f 43       	mov.b	#1,	r15	;r3 As==01
    4216:	b0 12 6e 44 	call	#0x446e	
    421a:	5f 43       	mov.b	#1,	r15	;r3 As==01
    421c:	b0 12 6e 44 	call	#0x446e	
    4220:	5f 43       	mov.b	#1,	r15	;r3 As==01
    4222:	b0 12 6e 44 	call	#0x446e	
    4226:	4f 43       	clr.b	r15		
    4228:	b0 12 6e 44 	call	#0x446e	
    422c:	4f 43       	clr.b	r15		
    422e:	b0 12 6e 44 	call	#0x446e	
    4232:	5f 43       	mov.b	#1,	r15	;r3 As==01
    4234:	b0 12 6e 44 	call	#0x446e	
    4238:	f2 d0 10 00 1d 00 	bis.b	#16,	&0x001d	;#0x0010
    423e:	f2 d2 19 00 	bis.b	#8,	&0x0019	;r2 As==11
    4242:	e2 d3 19 00 	bis.b	#2,	&0x0019	;r3 As==10
    4246:	f2 d0 10 00 32 00 	bis.b	#16,	&0x0032	;#0x0010
    424c:	f2 d0 20 00 32 00 	bis.b	#32,	&0x0032	;#0x0020
    4252:	f2 d0 40 00 32 00 	bis.b	#64,	&0x0032	;#0x0040
    4258:	b0 12 6c 4c 	call	#0x4c6c	
    425c:	b0 12 7c 4c 	call	#0x4c7c	
    4260:	b0 12 8c 4c 	call	#0x4c8c	
    4264:	b0 12 50 56 	call	#0x5650	
    4268:	4f 93       	tst.b	r15		
    426a:	fc 23       	jnz	$-6      	;abs 0x4264
    426c:	f2 43 5a 11 	mov.b	#-1,	&0x115a	;r3 As==11
    4270:	c2 43 6e 11 	mov.b	#0,	&0x116e	;r3 As==00
    4274:	c2 43 70 11 	mov.b	#0,	&0x1170	;r3 As==00
    4278:	f2 40 0a 00 fa 11 	mov.b	#10,	&0x11fa	;#0x000a
    427e:	c2 43 62 11 	mov.b	#0,	&0x1162	;r3 As==00
    4282:	c2 43 68 11 	mov.b	#0,	&0x1168	;r3 As==00
    4286:	c2 43 09 13 	mov.b	#0,	&0x1309	;r3 As==00
    428a:	82 43 44 13 	mov	#0,	&0x1344	;r3 As==00
    428e:	c2 43 42 13 	mov.b	#0,	&0x1342	;r3 As==00
    4292:	c2 43 82 11 	mov.b	#0,	&0x1182	;r3 As==00
    4296:	b0 12 50 44 	call	#0x4450	
    429a:	c2 43 73 11 	mov.b	#0,	&0x1173	;r3 As==00
    429e:	c2 43 72 11 	mov.b	#0,	&0x1172	;r3 As==00
    42a2:	c2 43 1e 11 	mov.b	#0,	&0x111e	;r3 As==00
    42a6:	b2 f0 ef ff 82 01 	and	#-17,	&0x0182	;#0xffef
    42ac:	b2 40 00 40 82 01 	mov	#16384,	&0x0182	;#0x4000
    42b2:	b0 12 50 56 	call	#0x5650	
    42b6:	4f 93       	tst.b	r15		
    42b8:	fc 23       	jnz	$-6      	;abs 0x42b2
    42ba:	4f 47       	mov.b	r7,	r15	
    42bc:	b0 12 78 45 	call	#0x4578	
    42c0:	32 d2       	eint			
    42c2:	b0 12 66 45 	call	#0x4566	
    42c6:	4e 4f       	mov.b	r15,	r14	
    42c8:	f2 90 0a 00 fa 11 	cmp.b	#10,	&0x11fa	;#0x000a
    42ce:	06 24       	jz	$+14     	;abs 0x42dc
    42d0:	e2 92 5e 11 	cmp.b	#4,	&0x115e	;r2 As==10
    42d4:	03 24       	jz	$+8      	;abs 0x42dc
    42d6:	b0 12 78 45 	call	#0x4578	
    42da:	07 3c       	jmp	$+16     	;abs 0x42ea
    42dc:	4f 4e       	mov.b	r14,	r15	
    42de:	b0 12 78 45 	call	#0x4578	
    42e2:	7f 40 05 00 	mov.b	#5,	r15	;#0x0005
    42e6:	b0 12 80 45 	call	#0x4580	
    42ea:	b0 12 9c 4c 	call	#0x4c9c	
    42ee:	82 4e 86 11 	mov	r14,	&0x1186	
    42f2:	82 4f 88 11 	mov	r15,	&0x1188	
    42f6:	b2 40 e8 03 8a 11 	mov	#1000,	&0x118a	;#0x03e8
    42fc:	82 43 8c 11 	mov	#0,	&0x118c	;r3 As==00
    4300:	5f 42 8e 11 	mov.b	&0x118e,r15	
    4304:	7f f0 fe ff 	and.b	#-2,	r15	;#0xfffe
    4308:	6f d3       	bis.b	#2,	r15	;r3 As==10
    430a:	c2 4f 8e 11 	mov.b	r15,	&0x118e	
    430e:	5f 43       	mov.b	#1,	r15	;r3 As==01
    4310:	b0 12 80 45 	call	#0x4580	
    4314:	b0 12 66 45 	call	#0x4566	
    4318:	4a 4f       	mov.b	r15,	r10	
    431a:	86 3c       	jmp	$+270    	;abs 0x4428
    431c:	c2 93 14 11 	tst.b	&0x1114	
    4320:	77 24       	jz	$+240    	;abs 0x4410
    4322:	b2 b0 10 00 62 01 	bit	#16,	&0x0162	;#0x0010
    4328:	08 20       	jnz	$+18     	;abs 0x433a
    432a:	b2 b0 10 00 64 01 	bit	#16,	&0x0164	;#0x0010
    4330:	04 20       	jnz	$+10     	;abs 0x433a
    4332:	b2 b0 10 00 66 01 	bit	#16,	&0x0166	;#0x0010
    4338:	07 24       	jz	$+16     	;abs 0x4348
    433a:	1e 42 60 01 	mov	&0x0160,r14	
    433e:	3e f0 00 03 	and	#768,	r14	;#0x0300
    4342:	3e 90 00 02 	cmp	#512,	r14	;#0x0200
    4346:	2e 24       	jz	$+94     	;abs 0x43a4
    4348:	5f 42 04 00 	mov.b	&0x0004,r15	
    434c:	3f b0 c0 00 	bit	#192,	r15	;#0x00c0
    4350:	05 24       	jz	$+12     	;abs 0x435c
    4352:	5f 42 71 00 	mov.b	&0x0071,r15	
    4356:	3f f0 20 00 	and	#32,	r15	;#0x0020
    435a:	26 20       	jnz	$+78     	;abs 0x43a8
    435c:	5f 42 05 00 	mov.b	&0x0005,r15	
    4360:	3f b0 30 00 	bit	#48,	r15	;#0x0030
    4364:	05 24       	jz	$+12     	;abs 0x4370
    4366:	5f 42 79 00 	mov.b	&0x0079,r15	
    436a:	3f f0 20 00 	and	#32,	r15	;#0x0020
    436e:	1e 20       	jnz	$+62     	;abs 0x43ac
    4370:	5f 42 70 00 	mov.b	&0x0070,r15	
    4374:	1f f3       	and	#1,	r15	;r3 As==01
    4376:	1c 24       	jz	$+58     	;abs 0x43b0
    4378:	5f 42 71 00 	mov.b	&0x0071,r15	
    437c:	3f f0 20 00 	and	#32,	r15	;#0x0020
    4380:	1a 24       	jz	$+54     	;abs 0x43b6
    4382:	5f 42 72 00 	mov.b	&0x0072,r15	
    4386:	3f f0 20 00 	and	#32,	r15	;#0x0020
    438a:	18 24       	jz	$+50     	;abs 0x43bc
    438c:	5f 42 70 00 	mov.b	&0x0070,r15	
    4390:	2f f2       	and	#4,	r15	;r2 As==10
    4392:	17 24       	jz	$+48     	;abs 0x43c2
    4394:	5f 42 70 00 	mov.b	&0x0070,r15	
    4398:	3f f0 20 00 	and	#32,	r15	;#0x0020
    439c:	15 20       	jnz	$+44     	;abs 0x43c8
    439e:	7e 40 05 00 	mov.b	#5,	r14	;#0x0005
    43a2:	13 3c       	jmp	$+40     	;abs 0x43ca
    43a4:	6e 43       	mov.b	#2,	r14	;r3 As==10
    43a6:	11 3c       	jmp	$+36     	;abs 0x43ca
    43a8:	6e 43       	mov.b	#2,	r14	;r3 As==10
    43aa:	0f 3c       	jmp	$+32     	;abs 0x43ca
    43ac:	6e 43       	mov.b	#2,	r14	;r3 As==10
    43ae:	0d 3c       	jmp	$+28     	;abs 0x43ca
    43b0:	7e 40 05 00 	mov.b	#5,	r14	;#0x0005
    43b4:	0a 3c       	jmp	$+22     	;abs 0x43ca
    43b6:	7e 40 05 00 	mov.b	#5,	r14	;#0x0005
    43ba:	07 3c       	jmp	$+16     	;abs 0x43ca
    43bc:	7e 40 05 00 	mov.b	#5,	r14	;#0x0005
    43c0:	04 3c       	jmp	$+10     	;abs 0x43ca
    43c2:	7e 40 05 00 	mov.b	#5,	r14	;#0x0005
    43c6:	01 3c       	jmp	$+4      	;abs 0x43ca
    43c8:	6e 43       	mov.b	#2,	r14	;r3 As==10
    43ca:	b2 b0 10 00 a0 01 	bit	#16,	&0x01a0	;#0x0010
    43d0:	19 24       	jz	$+52     	;abs 0x4404
    43d2:	b2 b0 10 00 a2 01 	bit	#16,	&0x01a2	;#0x0010
    43d8:	05 24       	jz	$+12     	;abs 0x43e4
    43da:	b2 b2 a2 01 	bit	#8,	&0x01a2	;r2 As==11
    43de:	0f 24       	jz	$+32     	;abs 0x43fe
    43e0:	6e 43       	mov.b	#2,	r14	;r3 As==10
    43e2:	10 3c       	jmp	$+34     	;abs 0x4404
    43e4:	1f 42 a2 01 	mov	&0x01a2,r15	
    43e8:	3f b0 00 04 	bit	#1024,	r15	;#0x0400
    43ec:	0b 24       	jz	$+24     	;abs 0x4404
    43ee:	1d 42 60 01 	mov	&0x0160,r13	
    43f2:	3d f0 00 03 	and	#768,	r13	;#0x0300
    43f6:	3d 90 00 02 	cmp	#512,	r13	;#0x0200
    43fa:	04 20       	jnz	$+10     	;abs 0x4404
    43fc:	02 3c       	jmp	$+6      	;abs 0x4402
    43fe:	4e 43       	clr.b	r14		
    4400:	01 3c       	jmp	$+4      	;abs 0x4404
    4402:	6e 43       	mov.b	#2,	r14	;r3 As==10
    4404:	7e 90 05 00 	cmp.b	#5,	r14	;#0x0005
    4408:	01 28       	jnc	$+4      	;abs 0x440c
    440a:	6e 42       	mov.b	#4,	r14	;r2 As==10
    440c:	c2 4e 48 11 	mov.b	r14,	&0x1148	
    4410:	5e 42 48 11 	mov.b	&0x1148,r14	
    4414:	0e 5e       	rla	r14		
    4416:	1e 4e 02 62 	mov	25090(r14),r14	;0x6202(r14)
    441a:	3e d2       	bis	#8,	r14	;r2 As==11
    441c:	81 4e 00 00 	mov	r14,	0(r1)	;0x0000(r1)
    4420:	22 d1       	bis	@r1,	r2	
    4422:	32 c2       	dint			
    4424:	03 43       	nop			
    4426:	03 43       	nop			
    4428:	f2 93 08 13 	cmp.b	#-1,	&0x1308	;r3 As==11
    442c:	77 27       	jz	$-272    	;abs 0x431c
    442e:	b0 12 0c 45 	call	#0x450c	
    4432:	4b 4f       	mov.b	r15,	r11	
    4434:	7f 93       	cmp.b	#-1,	r15	;r3 As==11
    4436:	72 27       	jz	$-282    	;abs 0x431c
    4438:	4f 4a       	mov.b	r10,	r15	
    443a:	b0 12 78 45 	call	#0x4578	
    443e:	4f 4b       	mov.b	r11,	r15	
    4440:	b0 12 64 51 	call	#0x5164	
    4444:	67 3f       	jmp	$-304    	;abs 0x4314

00004446 <__stop_progExec__>:
    4446:	32 d0 f0 00 	bis	#240,	r2	;#0x00f0
    444a:	fd 3f       	jmp	$-4      	;abs 0x4446

0000444c <__ctors_end>:
    444c:	30 40 be 61 	br	#0x61be	

00004450 <SerialP__rxInit>:
    4450:	c2 43 fd 12 	mov.b	#0,	&0x12fd	;r3 As==00
    4454:	c2 43 fc 12 	mov.b	#0,	&0x12fc	;r3 As==00
    4458:	e2 42 5e 11 	mov.b	#4,	&0x115e	;r2 As==10
    445c:	c2 43 fc 11 	mov.b	#0,	&0x11fc	;r3 As==00
    4460:	c2 43 02 13 	mov.b	#0,	&0x1302	;r3 As==00
    4464:	c2 43 5f 11 	mov.b	#0,	&0x115f	;r3 As==00
    4468:	82 43 80 11 	mov	#0,	&0x1180	;r3 As==00
    446c:	30 41       	ret			

0000446e <MotePlatformC__TOSH_FLASH_M25P_DP_bit>:
    446e:	4f 93       	tst.b	r15		
    4470:	04 24       	jz	$+10     	;abs 0x447a
    4472:	5f 42 19 00 	mov.b	&0x0019,r15	
    4476:	6f d3       	bis.b	#2,	r15	;r3 As==10
    4478:	04 3c       	jmp	$+10     	;abs 0x4482
    447a:	5f 42 19 00 	mov.b	&0x0019,r15	
    447e:	7f f0 fd ff 	and.b	#-3,	r15	;#0xfffd
    4482:	c2 4f 19 00 	mov.b	r15,	&0x0019	
    4486:	f2 d2 19 00 	bis.b	#8,	&0x0019	;r2 As==11
    448a:	f2 f0 f7 ff 19 00 	and.b	#-9,	&0x0019	;#0xfff7
    4490:	30 41       	ret			

00004492 <HplMsp430Usart1P__Usart__disableSpi>:
    4492:	f2 f0 ef ff 05 00 	and.b	#-17,	&0x0005	;#0xffef
    4498:	3f 40 33 00 	mov	#51,	r15	;#0x0033
    449c:	ff f0 fd ff 00 00 	and.b	#-3,	0(r15)	;#0xfffd, 0x0000(r15)
    44a2:	ff f0 fb ff 00 00 	and.b	#-5,	0(r15)	;#0xfffb, 0x0000(r15)
    44a8:	ff f0 f7 ff 00 00 	and.b	#-9,	0(r15)	;#0xfff7, 0x0000(r15)
    44ae:	30 41       	ret			

000044b0 <HplMsp430Usart1P__Usart__disableUart>:
    44b0:	f2 f0 cf ff 05 00 	and.b	#-49,	&0x0005	;#0xffcf
    44b6:	3f 40 1b 00 	mov	#27,	r15	;#0x001b
    44ba:	ff f0 bf ff 00 00 	and.b	#-65,	0(r15)	;#0xffbf, 0x0000(r15)
    44c0:	ff f0 7f 00 00 00 	and.b	#127,	0(r15)	;#0x007f, 0x0000(r15)
    44c6:	30 41       	ret			

000044c8 <crcByte>:
    44c8:	0d 4f       	mov	r15,	r13	
    44ca:	8d 10       	swpb	r13		
    44cc:	4d 4d       	mov.b	r13,	r13	
    44ce:	4f 4f       	mov.b	r15,	r15	
    44d0:	8f 10       	swpb	r15		
    44d2:	0d df       	bis	r15,	r13	
    44d4:	4e 4e       	mov.b	r14,	r14	
    44d6:	0d ee       	xor	r14,	r13	
    44d8:	4f 4d       	mov.b	r13,	r15	
    44da:	12 c3       	clrc			
    44dc:	4f 10       	rrc.b	r15		
    44de:	12 c3       	clrc			
    44e0:	4f 10       	rrc.b	r15		
    44e2:	12 c3       	clrc			
    44e4:	4f 10       	rrc.b	r15		
    44e6:	12 c3       	clrc			
    44e8:	4f 10       	rrc.b	r15		
    44ea:	4e 4f       	mov.b	r15,	r14	
    44ec:	0e ed       	xor	r13,	r14	
    44ee:	4f 4e       	mov.b	r14,	r15	
    44f0:	8f 10       	swpb	r15		
    44f2:	0f 5f       	rla	r15		
    44f4:	0f 5f       	rla	r15		
    44f6:	0f 5f       	rla	r15		
    44f8:	0f 5f       	rla	r15		
    44fa:	0f ee       	xor	r14,	r15	
    44fc:	4e 4f       	mov.b	r15,	r14	
    44fe:	0e 5e       	rla	r14		
    4500:	0e 5e       	rla	r14		
    4502:	0e 5e       	rla	r14		
    4504:	0e 5e       	rla	r14		
    4506:	0e 5e       	rla	r14		
    4508:	0f ee       	xor	r14,	r15	
    450a:	30 41       	ret			

0000450c <SchedulerBasicP__popTask.part.52>:
    450c:	5f 42 08 13 	mov.b	&0x1308,r15	
    4510:	4e 4f       	mov.b	r15,	r14	
    4512:	3e 50 4c 11 	add	#4428,	r14	;#0x114c
    4516:	6d 4e       	mov.b	@r14,	r13	
    4518:	c2 4d 08 13 	mov.b	r13,	&0x1308	
    451c:	7d 93       	cmp.b	#-1,	r13	;r3 As==11
    451e:	02 20       	jnz	$+6      	;abs 0x4524
    4520:	f2 43 43 13 	mov.b	#-1,	&0x1343	;r3 As==11
    4524:	fe 43 00 00 	mov.b	#-1,	0(r14)	;r3 As==11, 0x0000(r14)
    4528:	30 41       	ret			

0000452a <Msp430TimerP__0__Event__fired>:
    452a:	5f 93       	cmp.b	#1,	r15	;r3 As==01
    452c:	0c 24       	jz	$+26     	;abs 0x4546
    452e:	03 28       	jnc	$+8      	;abs 0x4536
    4530:	6f 93       	cmp.b	#2,	r15	;r3 As==10
    4532:	18 20       	jnz	$+50     	;abs 0x4564
    4534:	10 3c       	jmp	$+34     	;abs 0x4556
    4536:	1f 42 62 01 	mov	&0x0162,r15	
    453a:	8f 10       	swpb	r15		
    453c:	5f f3       	and.b	#1,	r15	;r3 As==01
    453e:	12 24       	jz	$+38     	;abs 0x4564
    4540:	1f 42 72 01 	mov	&0x0172,r15	
    4544:	30 41       	ret			
    4546:	1f 42 64 01 	mov	&0x0164,r15	
    454a:	8f 10       	swpb	r15		
    454c:	5f f3       	and.b	#1,	r15	;r3 As==01
    454e:	0a 24       	jz	$+22     	;abs 0x4564
    4550:	1f 42 74 01 	mov	&0x0174,r15	
    4554:	30 41       	ret			
    4556:	1f 42 66 01 	mov	&0x0166,r15	
    455a:	8f 10       	swpb	r15		
    455c:	5f f3       	and.b	#1,	r15	;r3 As==01
    455e:	02 24       	jz	$+6      	;abs 0x4564
    4560:	1f 42 76 01 	mov	&0x0176,r15	
    4564:	30 41       	ret			

00004566 <__nesc_atomic_start>:
    4566:	0e 42       	mov	r2,	r14	
    4568:	32 c2       	dint			
    456a:	03 43       	nop			
    456c:	03 43       	nop			
    456e:	3e f2       	and	#8,	r14	;r2 As==11
    4570:	5f 43       	mov.b	#1,	r15	;r3 As==01
    4572:	01 20       	jnz	$+4      	;abs 0x4576
    4574:	4f 43       	clr.b	r15		
    4576:	30 41       	ret			

00004578 <__nesc_atomic_end>:
    4578:	4f 93       	tst.b	r15		
    457a:	01 24       	jz	$+4      	;abs 0x457e
    457c:	32 d2       	eint			
    457e:	30 41       	ret			

00004580 <SchedulerBasicP__TaskBasic__postTask>:
    4580:	0b 12       	push	r11		
    4582:	4b 4f       	mov.b	r15,	r11	
    4584:	b0 12 66 45 	call	#0x4566	
    4588:	4e 4b       	mov.b	r11,	r14	
    458a:	fe 93 4c 11 	cmp.b	#-1,	4428(r14);r3 As==11, 0x114c(r14)
    458e:	06 20       	jnz	$+14     	;abs 0x459c
    4590:	1e 43       	mov	#1,	r14	;r3 As==01
    4592:	c2 9b 43 13 	cmp.b	r11,	&0x1343	
    4596:	03 24       	jz	$+8      	;abs 0x459e
    4598:	0e 43       	clr	r14		
    459a:	01 3c       	jmp	$+4      	;abs 0x459e
    459c:	1e 43       	mov	#1,	r14	;r3 As==01
    459e:	0e 93       	tst	r14		
    45a0:	0e 20       	jnz	$+30     	;abs 0x45be
    45a2:	f2 93 08 13 	cmp.b	#-1,	&0x1308	;r3 As==11
    45a6:	03 20       	jnz	$+8      	;abs 0x45ae
    45a8:	c2 4b 08 13 	mov.b	r11,	&0x1308	
    45ac:	04 3c       	jmp	$+10     	;abs 0x45b6
    45ae:	5e 42 43 13 	mov.b	&0x1343,r14	
    45b2:	ce 4b 4c 11 	mov.b	r11,	4428(r14);0x114c(r14)
    45b6:	c2 4b 43 13 	mov.b	r11,	&0x1343	
    45ba:	4b 43       	clr.b	r11		
    45bc:	02 3c       	jmp	$+6      	;abs 0x45c2
    45be:	7b 40 05 00 	mov.b	#5,	r11	;#0x0005
    45c2:	b0 12 78 45 	call	#0x4578	
    45c6:	4f 4b       	mov.b	r11,	r15	
    45c8:	3b 41       	pop	r11		
    45ca:	30 41       	ret			

000045cc <SerialP__ReceiveBytePacket__endPacket>:
    45cc:	c2 93 30 11 	tst.b	&0x1130	
    45d0:	2c 20       	jnz	$+90     	;abs 0x462a
    45d2:	4f 93       	tst.b	r15		
    45d4:	2a 20       	jnz	$+86     	;abs 0x462a
    45d6:	d2 43 30 11 	mov.b	#1,	&0x1130	;r3 As==01
    45da:	d2 42 12 11 2e 11 	mov.b	&0x1112,&0x112e	
    45e0:	d2 b3 42 11 	bit.b	#1,	&0x1142	;r3 As==01
    45e4:	0f 43       	clr	r15		
    45e6:	0f 6f       	rlc	r15		
    45e8:	c2 4f 4b 11 	mov.b	r15,	&0x114b	
    45ec:	92 42 0c 11 2c 11 	mov	&0x110c,&0x112c	
    45f2:	d2 42 40 11 2a 11 	mov.b	&0x1140,&0x112a	
    45f8:	5e 42 42 11 	mov.b	&0x1142,r14	
    45fc:	5e f3       	and.b	#1,	r14	;r3 As==01
    45fe:	5f 43       	mov.b	#1,	r15	;r3 As==01
    4600:	01 24       	jz	$+4      	;abs 0x4604
    4602:	4f 43       	clr.b	r15		
    4604:	5e 42 42 11 	mov.b	&0x1142,r14	
    4608:	7e f0 fe ff 	and.b	#-2,	r14	;#0xfffe
    460c:	4e df       	bis.b	r15,	r14	
    460e:	1f f3       	and	#1,	r15	;r3 As==01
    4610:	0f 5f       	rla	r15		
    4612:	92 4f 0e 11 0c 11 	mov	4366(r15),&0x110c	;0x110e(r15)
    4618:	7e f0 e7 ff 	and.b	#-25,	r14	;#0xffe7
    461c:	c2 4e 42 11 	mov.b	r14,	&0x1142	
    4620:	7f 40 09 00 	mov.b	#9,	r15	;#0x0009
    4624:	b0 12 80 45 	call	#0x4580	
    4628:	30 41       	ret			
    462a:	d2 b3 42 11 	bit.b	#1,	&0x1142	;r3 As==01
    462e:	0f 43       	clr	r15		
    4630:	0f 6f       	rlc	r15		
    4632:	5e 42 42 11 	mov.b	&0x1142,r14	
    4636:	4f 93       	tst.b	r15		
    4638:	03 24       	jz	$+8      	;abs 0x4640
    463a:	7e f0 fb ff 	and.b	#-5,	r14	;#0xfffb
    463e:	02 3c       	jmp	$+6      	;abs 0x4644
    4640:	7e f0 fd ff 	and.b	#-3,	r14	;#0xfffd
    4644:	c2 4e 42 11 	mov.b	r14,	&0x1142	
    4648:	30 41       	ret			

0000464a <SerialP__testOff>:
    464a:	f2 90 0a 00 fa 11 	cmp.b	#10,	&0x11fa	;#0x000a
    4650:	03 20       	jnz	$+8      	;abs 0x4658
    4652:	e2 92 5e 11 	cmp.b	#4,	&0x115e	;r2 As==10
    4656:	03 24       	jz	$+8      	;abs 0x465e
    4658:	d2 43 44 11 	mov.b	#1,	&0x1144	;r3 As==01
    465c:	30 41       	ret			
    465e:	7f 40 06 00 	mov.b	#6,	r15	;#0x0006
    4662:	b0 12 80 45 	call	#0x4580	
    4666:	c2 43 44 11 	mov.b	#0,	&0x1144	;r3 As==00
    466a:	30 41       	ret			

0000466c <SerialP__MaybeScheduleTx>:
    466c:	0b 12       	push	r11		
    466e:	b0 12 66 45 	call	#0x4566	
    4672:	4b 4f       	mov.b	r15,	r11	
    4674:	c2 93 42 13 	tst.b	&0x1342	
    4678:	07 20       	jnz	$+16     	;abs 0x4688
    467a:	6f 42       	mov.b	#4,	r15	;r2 As==10
    467c:	b0 12 80 45 	call	#0x4580	
    4680:	4f 93       	tst.b	r15		
    4682:	02 20       	jnz	$+6      	;abs 0x4688
    4684:	d2 43 42 13 	mov.b	#1,	&0x1342	;r3 As==01
    4688:	4f 4b       	mov.b	r11,	r15	
    468a:	b0 12 78 45 	call	#0x4578	
    468e:	3b 41       	pop	r11		
    4690:	30 41       	ret			

00004692 <SerialP__rx_state_machine>:
    4692:	0b 12       	push	r11		
    4694:	0a 12       	push	r10		
    4696:	4b 4f       	mov.b	r15,	r11	
    4698:	4a 4e       	mov.b	r14,	r10	
    469a:	5f 42 5e 11 	mov.b	&0x115e,r15	
    469e:	5f 93       	cmp.b	#1,	r15	;r3 As==01
    46a0:	0f 24       	jz	$+32     	;abs 0x46c0
    46a2:	06 28       	jnc	$+14     	;abs 0x46b0
    46a4:	6f 93       	cmp.b	#2,	r15	;r3 As==10
    46a6:	40 24       	jz	$+130    	;abs 0x4728
    46a8:	7f 90 03 00 	cmp.b	#3,	r15	;#0x0003
    46ac:	ef 20       	jnz	$+480    	;abs 0x488c
    46ae:	4a 3c       	jmp	$+150    	;abs 0x4744
    46b0:	4b 93       	tst.b	r11		
    46b2:	02 20       	jnz	$+6      	;abs 0x46b8
    46b4:	30 40 cc 48 	br	#0x48cc	
    46b8:	b0 12 50 44 	call	#0x4450	
    46bc:	30 40 b0 48 	br	#0x48b0	
    46c0:	4b 93       	tst.b	r11		
    46c2:	02 24       	jz	$+6      	;abs 0x46c8
    46c4:	30 40 cc 48 	br	#0x48cc	
    46c8:	c2 4e 02 13 	mov.b	r14,	&0x1302	
    46cc:	4f 4e       	mov.b	r14,	r15	
    46ce:	7f 50 bc ff 	add.b	#-68,	r15	;#0xffbc
    46d2:	6f 93       	cmp.b	#2,	r15	;r3 As==10
    46d4:	db 2c       	jc	$+440    	;abs 0x488c
    46d6:	ef 3c       	jmp	$+480    	;abs 0x48b6
    46d8:	e2 43 5e 11 	mov.b	#2,	&0x115e	;r3 As==10
    46dc:	03 3c       	jmp	$+8      	;abs 0x46e4
    46de:	f2 40 03 00 5e 11 	mov.b	#3,	&0x115e	;#0x0003
    46e4:	5d 42 42 11 	mov.b	&0x1142,r13	
    46e8:	5d f3       	and.b	#1,	r13	;r3 As==01
    46ea:	03 24       	jz	$+8      	;abs 0x46f2
    46ec:	e2 b2 42 11 	bit.b	#4,	&0x1142	;r2 As==10
    46f0:	02 3c       	jmp	$+6      	;abs 0x46f6
    46f2:	e2 b3 42 11 	bit.b	#2,	&0x1142	;r3 As==10
    46f6:	0e 43       	clr	r14		
    46f8:	0e 6e       	rlc	r14		
    46fa:	4e 93       	tst.b	r14		
    46fc:	c7 20       	jnz	$+400    	;abs 0x488c
    46fe:	5f 42 42 11 	mov.b	&0x1142,r15	
    4702:	4d 93       	tst.b	r13		
    4704:	02 24       	jz	$+6      	;abs 0x470a
    4706:	6f d2       	bis.b	#4,	r15	;r2 As==10
    4708:	01 3c       	jmp	$+4      	;abs 0x470c
    470a:	6f d3       	bis.b	#2,	r15	;r3 As==10
    470c:	c2 4f 42 11 	mov.b	r15,	&0x1142	
    4710:	5f 42 42 11 	mov.b	&0x1142,r15	
    4714:	7f f0 e7 ff 	and.b	#-25,	r15	;#0xffe7
    4718:	7f d2       	bis.b	#8,	r15	;r2 As==11
    471a:	c2 4f 42 11 	mov.b	r15,	&0x1142	
    471e:	c2 43 40 11 	mov.b	#0,	&0x1140	;r3 As==00
    4722:	f2 43 12 11 	mov.b	#-1,	&0x1112	;r3 As==11
    4726:	d2 3c       	jmp	$+422    	;abs 0x48cc
    4728:	4b 93       	tst.b	r11		
    472a:	b0 20       	jnz	$+354    	;abs 0x488c
    472c:	c2 4e 5f 11 	mov.b	r14,	&0x115f	
    4730:	1f 42 80 11 	mov	&0x1180,r15	
    4734:	b0 12 c8 44 	call	#0x44c8	
    4738:	82 4f 80 11 	mov	r15,	&0x1180	
    473c:	f2 40 03 00 5e 11 	mov.b	#3,	&0x115e	;#0x0003
    4742:	c4 3c       	jmp	$+394    	;abs 0x48cc
    4744:	5f 42 fc 11 	mov.b	&0x11fc,r15	
    4748:	7f 93       	cmp.b	#-1,	r15	;r3 As==11
    474a:	a0 24       	jz	$+322    	;abs 0x488c
    474c:	4b 93       	tst.b	r11		
    474e:	45 24       	jz	$+140    	;abs 0x47da
    4750:	6f 93       	cmp.b	#2,	r15	;r3 As==10
    4752:	9c 28       	jnc	$+314    	;abs 0x488c
    4754:	5f 42 fc 12 	mov.b	&0x12fc,r15	
    4758:	4f 93       	tst.b	r15		
    475a:	02 24       	jz	$+6      	;abs 0x4760
    475c:	7f 53       	add.b	#-1,	r15	;r3 As==11
    475e:	01 3c       	jmp	$+4      	;abs 0x4762
    4760:	6f 43       	mov.b	#2,	r15	;r3 As==10
    4762:	4e 4f       	mov.b	r15,	r14	
    4764:	5e 4e fe 12 	mov.b	4862(r14),r14	;0x12fe(r14)
    4768:	8e 10       	swpb	r14		
    476a:	4f 93       	tst.b	r15		
    476c:	02 24       	jz	$+6      	;abs 0x4772
    476e:	7f 53       	add.b	#-1,	r15	;r3 As==11
    4770:	01 3c       	jmp	$+4      	;abs 0x4774
    4772:	6f 43       	mov.b	#2,	r15	;r3 As==10
    4774:	4f 4f       	mov.b	r15,	r15	
    4776:	5f 4f fe 12 	mov.b	4862(r15),r15	;0x12fe(r15)
    477a:	0f de       	bis	r14,	r15	
    477c:	1f 92 80 11 	cmp	&0x1180,r15	
    4780:	85 20       	jnz	$+268    	;abs 0x488c
    4782:	4f 43       	clr.b	r15		
    4784:	b0 12 cc 45 	call	#0x45cc	
    4788:	f2 90 44 00 02 13 	cmp.b	#68,	&0x1302	;#0x0044
    478e:	1c 20       	jnz	$+58     	;abs 0x47c8
    4790:	5c 42 5f 11 	mov.b	&0x115f,r12	
    4794:	5e 42 72 11 	mov.b	&0x1172,r14	
    4798:	5b 42 73 11 	mov.b	&0x1173,r11	
    479c:	4f 4e       	mov.b	r14,	r15	
    479e:	5f 53       	inc.b	r15		
    47a0:	7f 90 06 00 	cmp.b	#6,	r15	;#0x0006
    47a4:	02 2c       	jc	$+6      	;abs 0x47aa
    47a6:	4d 4f       	mov.b	r15,	r13	
    47a8:	01 3c       	jmp	$+4      	;abs 0x47ac
    47aa:	4d 43       	clr.b	r13		
    47ac:	4d 9b       	cmp.b	r11,	r13	
    47ae:	0c 24       	jz	$+26     	;abs 0x47c8
    47b0:	4e 4e       	mov.b	r14,	r14	
    47b2:	ce 4c 74 11 	mov.b	r12,	4468(r14);0x1174(r14)
    47b6:	c2 4f 72 11 	mov.b	r15,	&0x1172	
    47ba:	7f 90 06 00 	cmp.b	#6,	r15	;#0x0006
    47be:	02 28       	jnc	$+6      	;abs 0x47c4
    47c0:	c2 43 72 11 	mov.b	#0,	&0x1172	;r3 As==00
    47c4:	b0 12 6c 46 	call	#0x466c	
    47c8:	b0 12 50 44 	call	#0x4450	
    47cc:	f2 f0 fd ff 28 11 	and.b	#-3,	&0x1128	;#0xfffd
    47d2:	c2 93 44 11 	tst.b	&0x1144	
    47d6:	7a 24       	jz	$+246    	;abs 0x48cc
    47d8:	64 3c       	jmp	$+202    	;abs 0x48a2
    47da:	6f 93       	cmp.b	#2,	r15	;r3 As==10
    47dc:	46 28       	jnc	$+142    	;abs 0x486a
    47de:	5f 42 fd 12 	mov.b	&0x12fd,r15	
    47e2:	5e 4f fe 12 	mov.b	4862(r15),r14	;0x12fe(r15)
    47e6:	5f 42 42 11 	mov.b	&0x1142,r15	
    47ea:	12 c3       	clrc			
    47ec:	4f 10       	rrc.b	r15		
    47ee:	12 c3       	clrc			
    47f0:	4f 10       	rrc.b	r15		
    47f2:	12 c3       	clrc			
    47f4:	4f 10       	rrc.b	r15		
    47f6:	3f f0 03 00 	and	#3,	r15	;#0x0003
    47fa:	1f 93       	cmp	#1,	r15	;r3 As==01
    47fc:	03 24       	jz	$+8      	;abs 0x4804
    47fe:	2f 93       	cmp	#2,	r15	;r3 As==10
    4800:	20 20       	jnz	$+66     	;abs 0x4842
    4802:	13 3c       	jmp	$+40     	;abs 0x482a
    4804:	5f 42 42 11 	mov.b	&0x1142,r15	
    4808:	7f f0 e7 ff 	and.b	#-25,	r15	;#0xffe7
    480c:	7f d0 10 00 	bis.b	#16,	r15	;#0x0010
    4810:	c2 4f 42 11 	mov.b	r15,	&0x1142	
    4814:	4e 93       	tst.b	r14		
    4816:	02 24       	jz	$+6      	;abs 0x481c
    4818:	4f 43       	clr.b	r15		
    481a:	02 3c       	jmp	$+6      	;abs 0x4820
    481c:	7f 40 05 00 	mov.b	#5,	r15	;#0x0005
    4820:	c2 4f 40 11 	mov.b	r15,	&0x1140	
    4824:	c2 4e 12 11 	mov.b	r14,	&0x1112	
    4828:	0c 3c       	jmp	$+26     	;abs 0x4842
    482a:	5f 42 40 11 	mov.b	&0x1140,r15	
    482e:	7f 90 34 00 	cmp.b	#52,	r15	;#0x0034
    4832:	07 2c       	jc	$+16     	;abs 0x4842
    4834:	4f 4f       	mov.b	r15,	r15	
    4836:	1f 52 0c 11 	add	&0x110c,r15	
    483a:	cf 4e 00 00 	mov.b	r14,	0(r15)	;0x0000(r15)
    483e:	d2 53 40 11 	inc.b	&0x1140	
    4842:	5d 42 fd 12 	mov.b	&0x12fd,r13	
    4846:	4f 4d       	mov.b	r13,	r15	
    4848:	5e 4f fe 12 	mov.b	4862(r15),r14	;0x12fe(r15)
    484c:	4f 4d       	mov.b	r13,	r15	
    484e:	5f 53       	inc.b	r15		
    4850:	c2 4f fd 12 	mov.b	r15,	&0x12fd	
    4854:	7f 90 03 00 	cmp.b	#3,	r15	;#0x0003
    4858:	02 28       	jnc	$+6      	;abs 0x485e
    485a:	c2 43 fd 12 	mov.b	#0,	&0x12fd	;r3 As==00
    485e:	1f 42 80 11 	mov	&0x1180,r15	
    4862:	b0 12 c8 44 	call	#0x44c8	
    4866:	82 4f 80 11 	mov	r15,	&0x1180	
    486a:	5e 42 fc 12 	mov.b	&0x12fc,r14	
    486e:	4f 4e       	mov.b	r14,	r15	
    4870:	cf 4a fe 12 	mov.b	r10,	4862(r15);0x12fe(r15)
    4874:	4f 4e       	mov.b	r14,	r15	
    4876:	5f 53       	inc.b	r15		
    4878:	c2 4f fc 12 	mov.b	r15,	&0x12fc	
    487c:	7f 90 03 00 	cmp.b	#3,	r15	;#0x0003
    4880:	02 28       	jnc	$+6      	;abs 0x4886
    4882:	c2 43 fc 12 	mov.b	#0,	&0x12fc	;r3 As==00
    4886:	d2 53 fc 11 	inc.b	&0x11fc	
    488a:	20 3c       	jmp	$+66     	;abs 0x48cc
    488c:	b0 12 50 44 	call	#0x4450	
    4890:	f2 f0 fd ff 28 11 	and.b	#-3,	&0x1128	;#0xfffd
    4896:	5f 43       	mov.b	#1,	r15	;r3 As==01
    4898:	b0 12 cc 45 	call	#0x45cc	
    489c:	c2 93 44 11 	tst.b	&0x1144	
    48a0:	05 24       	jz	$+12     	;abs 0x48ac
    48a2:	e2 42 5e 11 	mov.b	#4,	&0x115e	;r2 As==10
    48a6:	b0 12 4a 46 	call	#0x464a	
    48aa:	10 3c       	jmp	$+34     	;abs 0x48cc
    48ac:	4b 93       	tst.b	r11		
    48ae:	0e 24       	jz	$+30     	;abs 0x48cc
    48b0:	d2 43 5e 11 	mov.b	#1,	&0x115e	;r3 As==01
    48b4:	0b 3c       	jmp	$+24     	;abs 0x48cc
    48b6:	1f 42 80 11 	mov	&0x1180,r15	
    48ba:	b0 12 c8 44 	call	#0x44c8	
    48be:	82 4f 80 11 	mov	r15,	&0x1180	
    48c2:	7a 90 44 00 	cmp.b	#68,	r10	;#0x0044
    48c6:	0b 23       	jnz	$-488    	;abs 0x46de
    48c8:	30 40 d8 46 	br	#0x46d8	
    48cc:	3a 41       	pop	r10		
    48ce:	3b 41       	pop	r11		
    48d0:	30 41       	ret			

000048d2 <SerialActiveMessageP__0__AMSend__send>:
    48d2:	0b 12       	push	r11		
    48d4:	0a 12       	push	r10		
    48d6:	0b 4d       	mov	r13,	r11	
    48d8:	4a 4c       	mov.b	r12,	r10	
    48da:	7c 90 1d 00 	cmp.b	#29,	r12	;#0x001d
    48de:	44 2c       	jc	$+138    	;abs 0x4968
    48e0:	cd 4e 06 00 	mov.b	r14,	6(r13)	;0x0006(r13)
    48e4:	8e 10       	swpb	r14		
    48e6:	cd 4e 05 00 	mov.b	r14,	5(r13)	;0x0005(r13)
    48ea:	cd 4f 0b 00 	mov.b	r15,	11(r13)	;0x000b(r13)
    48ee:	cb 4c 09 00 	mov.b	r12,	9(r11)	;0x0009(r11)
    48f2:	82 93 3c 11 	tst	&0x113c	
    48f6:	3a 20       	jnz	$+118    	;abs 0x496c
    48f8:	b0 12 66 45 	call	#0x4566	
    48fc:	f2 40 05 00 38 11 	mov.b	#5,	&0x1138	;#0x0005
    4902:	c2 43 36 11 	mov.b	#0,	&0x1136	;r3 As==00
    4906:	82 4b 3e 11 	mov	r11,	&0x113e	
    490a:	a2 43 3c 11 	mov	#2,	&0x113c	;r3 As==10
    490e:	c2 43 32 11 	mov.b	#0,	&0x1132	;r3 As==00
    4912:	c2 43 34 11 	mov.b	#0,	&0x1134	;r3 As==00
    4916:	7a 50 0c 00 	add.b	#12,	r10	;#0x000c
    491a:	c2 4a 3a 11 	mov.b	r10,	&0x113a	
    491e:	b0 12 78 45 	call	#0x4578	
    4922:	b0 12 66 45 	call	#0x4566	
    4926:	f2 90 0a 00 fa 11 	cmp.b	#10,	&0x11fa	;#0x000a
    492c:	03 20       	jnz	$+8      	;abs 0x4934
    492e:	b0 12 78 45 	call	#0x4578	
    4932:	16 3c       	jmp	$+46     	;abs 0x4960
    4934:	b0 12 78 45 	call	#0x4578	
    4938:	b0 12 66 45 	call	#0x4566	
    493c:	c2 93 70 11 	tst.b	&0x1170	
    4940:	06 20       	jnz	$+14     	;abs 0x494e
    4942:	d2 43 70 11 	mov.b	#1,	&0x1170	;r3 As==01
    4946:	c2 43 71 11 	mov.b	#0,	&0x1171	;r3 As==00
    494a:	5b 43       	mov.b	#1,	r11	;r3 As==01
    494c:	01 3c       	jmp	$+4      	;abs 0x4950
    494e:	4b 43       	clr.b	r11		
    4950:	b0 12 78 45 	call	#0x4578	
    4954:	4b 93       	tst.b	r11		
    4956:	04 24       	jz	$+10     	;abs 0x4960
    4958:	b0 12 6c 46 	call	#0x466c	
    495c:	4f 43       	clr.b	r15		
    495e:	08 3c       	jmp	$+18     	;abs 0x4970
    4960:	82 43 3c 11 	mov	#0,	&0x113c	;r3 As==00
    4964:	5f 43       	mov.b	#1,	r15	;r3 As==01
    4966:	04 3c       	jmp	$+10     	;abs 0x4970
    4968:	6f 43       	mov.b	#2,	r15	;r3 As==10
    496a:	02 3c       	jmp	$+6      	;abs 0x4970
    496c:	7f 40 05 00 	mov.b	#5,	r15	;#0x0005
    4970:	3a 41       	pop	r10		
    4972:	3b 41       	pop	r11		
    4974:	30 41       	ret			

00004976 <AMQueueImplP__0__tryToSend>:
    4976:	c2 43 13 11 	mov.b	#0,	&0x1113	;r3 As==00
    497a:	1d 42 7a 11 	mov	&0x117a,r13	
    497e:	0d 93       	tst	r13		
    4980:	04 24       	jz	$+10     	;abs 0x498a
    4982:	5f 42 0b 13 	mov.b	&0x130b,r15	
    4986:	1f f3       	and	#1,	r15	;r3 As==01
    4988:	02 24       	jz	$+6      	;abs 0x498e
    498a:	d2 43 13 11 	mov.b	#1,	&0x1113	;r3 As==01
    498e:	c2 93 13 11 	tst.b	&0x1113	
    4992:	12 20       	jnz	$+38     	;abs 0x49b8
    4994:	5f 4d 05 00 	mov.b	5(r13),	r15	;0x0005(r13)
    4998:	8f 10       	swpb	r15		
    499a:	5e 4d 06 00 	mov.b	6(r13),	r14	;0x0006(r13)
    499e:	5c 4d 09 00 	mov.b	9(r13),	r12	;0x0009(r13)
    49a2:	0e df       	bis	r15,	r14	
    49a4:	5f 4d 0b 00 	mov.b	11(r13),r15	;0x000b(r13)
    49a8:	b0 12 d2 48 	call	#0x48d2	
    49ac:	4f 93       	tst.b	r15		
    49ae:	04 24       	jz	$+10     	;abs 0x49b8
    49b0:	7f 40 03 00 	mov.b	#3,	r15	;#0x0003
    49b4:	b0 12 80 45 	call	#0x4580	
    49b8:	30 41       	ret			

000049ba <PrintfP__AMSend__send.part.67.constprop.82>:
    49ba:	5f 42 13 13 	mov.b	&0x1313,r15	
    49be:	8f 10       	swpb	r15		
    49c0:	5e 42 14 13 	mov.b	&0x1314,r14	
    49c4:	c2 43 13 11 	mov.b	#0,	&0x1113	;r3 As==00
    49c8:	7c 40 1c 00 	mov.b	#28,	r12	;#0x001c
    49cc:	3d 40 0e 13 	mov	#4878,	r13	;#0x130e
    49d0:	0e df       	bis	r15,	r14	
    49d2:	5f 42 19 13 	mov.b	&0x1319,r15	
    49d6:	b0 12 d2 48 	call	#0x48d2	
    49da:	4f 93       	tst.b	r15		
    49dc:	04 24       	jz	$+10     	;abs 0x49e6
    49de:	d2 43 13 11 	mov.b	#1,	&0x1113	;r3 As==01
    49e2:	82 43 7a 11 	mov	#0,	&0x117a	;r3 As==00
    49e6:	30 41       	ret			

000049e8 <PrintfP__sendNext>:
    49e8:	0b 12       	push	r11		
    49ea:	5b 42 20 11 	mov.b	&0x1120,r11	
    49ee:	7b 90 1c 00 	cmp.b	#28,	r11	;#0x001c
    49f2:	02 2c       	jc	$+6      	;abs 0x49f8
    49f4:	4b 4b       	mov.b	r11,	r11	
    49f6:	02 3c       	jmp	$+6      	;abs 0x49fc
    49f8:	3b 40 1c 00 	mov	#28,	r11	;#0x001c
    49fc:	3d 40 1c 00 	mov	#28,	r13	;#0x001c
    4a00:	0e 43       	clr	r14		
    4a02:	3f 40 1a 13 	mov	#4890,	r15	;#0x131a
    4a06:	b0 12 ae 57 	call	#0x57ae	
    4a0a:	5f 42 24 11 	mov.b	&0x1124,r15	
    4a0e:	5d 42 20 11 	mov.b	&0x1120,r13	
    4a12:	0e 43       	clr	r14		
    4a14:	0e 3c       	jmp	$+30     	;abs 0x4a32
    4a16:	4c 4f       	mov.b	r15,	r12	
    4a18:	5c 4c 02 12 	mov.b	4610(r12),r12	;0x1202(r12)
    4a1c:	4d 93       	tst.b	r13		
    4a1e:	06 24       	jz	$+14     	;abs 0x4a2c
    4a20:	5f 53       	inc.b	r15		
    4a22:	7f 90 fa ff 	cmp.b	#-6,	r15	;#0xfffa
    4a26:	01 20       	jnz	$+4      	;abs 0x4a2a
    4a28:	4f 43       	clr.b	r15		
    4a2a:	7d 53       	add.b	#-1,	r13	;r3 As==11
    4a2c:	ce 4c 1a 13 	mov.b	r12,	4890(r14);0x131a(r14)
    4a30:	1e 53       	inc	r14		
    4a32:	0e 9b       	cmp	r11,	r14	
    4a34:	f0 23       	jnz	$-30     	;abs 0x4a16
    4a36:	c2 4f 24 11 	mov.b	r15,	&0x1124	
    4a3a:	c2 4d 20 11 	mov.b	r13,	&0x1120	
    4a3e:	f2 43 14 13 	mov.b	#-1,	&0x1314	;r3 As==11
    4a42:	f2 43 13 13 	mov.b	#-1,	&0x1313	;r3 As==11
    4a46:	f2 40 64 00 19 13 	mov.b	#100,	&0x1319	;#0x0064
    4a4c:	82 93 7a 11 	tst	&0x117a	
    4a50:	0d 20       	jnz	$+28     	;abs 0x4a6c
    4a52:	b2 40 0e 13 7a 11 	mov	#4878,	&0x117a	;#0x130e
    4a58:	f2 40 1c 00 17 13 	mov.b	#28,	&0x1317	;#0x001c
    4a5e:	c2 93 13 11 	tst.b	&0x1113	
    4a62:	08 24       	jz	$+18     	;abs 0x4a74
    4a64:	b0 12 ba 49 	call	#0x49ba	
    4a68:	4f 93       	tst.b	r15		
    4a6a:	04 24       	jz	$+10     	;abs 0x4a74
    4a6c:	7f 40 0b 00 	mov.b	#11,	r15	;#0x000b
    4a70:	b0 12 80 45 	call	#0x4580	
    4a74:	3b 41       	pop	r11		
    4a76:	30 41       	ret			

00004a78 <AMQueueImplP__0__Send__sendDone.isra.71>:
    4a78:	4f 93       	tst.b	r15		
    4a7a:	0f 20       	jnz	$+32     	;abs 0x4a9a
    4a7c:	4e 93       	tst.b	r14		
    4a7e:	09 20       	jnz	$+20     	;abs 0x4a92
    4a80:	c2 93 20 11 	tst.b	&0x1120	
    4a84:	03 24       	jz	$+8      	;abs 0x4a8c
    4a86:	b0 12 e8 49 	call	#0x49e8	
    4a8a:	30 41       	ret			
    4a8c:	c2 43 1e 11 	mov.b	#0,	&0x111e	;r3 As==00
    4a90:	30 41       	ret			
    4a92:	7f 40 0b 00 	mov.b	#11,	r15	;#0x000b
    4a96:	b0 12 80 45 	call	#0x4580	
    4a9a:	30 41       	ret			

00004a9c <Msp430UartP__0__UsartResource__isOwner.part.78>:
    4a9c:	b0 12 66 45 	call	#0x4566	
    4aa0:	4e 4f       	mov.b	r15,	r14	
    4aa2:	c2 93 08 11 	tst.b	&0x1108	
    4aa6:	08 20       	jnz	$+18     	;abs 0x4ab8
    4aa8:	f2 90 03 00 26 11 	cmp.b	#3,	&0x1126	;#0x0003
    4aae:	04 20       	jnz	$+10     	;abs 0x4ab8
    4ab0:	b0 12 78 45 	call	#0x4578	
    4ab4:	5f 43       	mov.b	#1,	r15	;r3 As==01
    4ab6:	30 41       	ret			
    4ab8:	4f 4e       	mov.b	r14,	r15	
    4aba:	b0 12 78 45 	call	#0x4578	
    4abe:	4f 43       	clr.b	r15		
    4ac0:	30 41       	ret			

00004ac2 <HdlcTranslateC__UartStream__send.constprop.83>:
    4ac2:	b0 12 9c 4a 	call	#0x4a9c	
    4ac6:	4f 93       	tst.b	r15		
    4ac8:	11 24       	jz	$+36     	;abs 0x4aec
    4aca:	82 93 0c 13 	tst	&0x130c	
    4ace:	10 20       	jnz	$+34     	;abs 0x4af0
    4ad0:	b2 40 58 11 0c 13 	mov	#4440,	&0x130c	;#0x1158
    4ad6:	92 43 fe 11 	mov	#1,	&0x11fe	;r3 As==01
    4ada:	c2 43 4a 11 	mov.b	#0,	&0x114a	;r3 As==00
    4ade:	92 43 60 11 	mov	#1,	&0x1160	;r3 As==01
    4ae2:	d2 42 58 11 7f 00 	mov.b	&0x1158,&0x007f	
    4ae8:	4f 43       	clr.b	r15		
    4aea:	30 41       	ret			
    4aec:	5f 43       	mov.b	#1,	r15	;r3 As==01
    4aee:	30 41       	ret			
    4af0:	7f 40 05 00 	mov.b	#5,	r15	;#0x0005
    4af4:	30 41       	ret			

00004af6 <SerialP__SerialFrameComm__putData>:
    4af6:	4e 4f       	mov.b	r15,	r14	
    4af8:	7e 50 83 ff 	add.b	#-125,	r14	;#0xff83
    4afc:	6e 93       	cmp.b	#2,	r14	;r3 As==10
    4afe:	0a 2c       	jc	$+22     	;abs 0x4b14
    4b00:	d2 d3 28 11 	bis.b	#1,	&0x1128	;r3 As==01
    4b04:	7f e0 20 00 	xor.b	#32,	r15	;#0x0020
    4b08:	c2 4f fb 11 	mov.b	r15,	&0x11fb	
    4b0c:	f2 40 7d 00 58 11 	mov.b	#125,	&0x1158	;#0x007d
    4b12:	02 3c       	jmp	$+6      	;abs 0x4b18
    4b14:	c2 4f 58 11 	mov.b	r15,	&0x1158	
    4b18:	b0 12 c2 4a 	call	#0x4ac2	
    4b1c:	30 41       	ret			

00004b1e <SerialP__SerialFrameComm__putDelimiter>:
    4b1e:	b0 12 66 45 	call	#0x4566	
    4b22:	f2 f0 fe ff 28 11 	and.b	#-2,	&0x1128	;#0xfffe
    4b28:	f2 40 7e 00 58 11 	mov.b	#126,	&0x1158	;#0x007e
    4b2e:	b0 12 78 45 	call	#0x4578	
    4b32:	b0 12 c2 4a 	call	#0x4ac2	
    4b36:	30 41       	ret			

00004b38 <HdlcTranslateC__UartStream__sendDone.isra.80>:
    4b38:	0b 12       	push	r11		
    4b3a:	0a 12       	push	r10		
    4b3c:	09 12       	push	r9		
    4b3e:	d2 b3 28 11 	bit.b	#1,	&0x1128	;r3 As==01
    4b42:	09 24       	jz	$+20     	;abs 0x4b56
    4b44:	f2 f0 fe ff 28 11 	and.b	#-2,	&0x1128	;#0xfffe
    4b4a:	d2 42 fb 11 58 11 	mov.b	&0x11fb,&0x1158	
    4b50:	b0 12 c2 4a 	call	#0x4ac2	
    4b54:	87 3c       	jmp	$+272    	;abs 0x4c64
    4b56:	5f 42 fa 11 	mov.b	&0x11fa,r15	
    4b5a:	7f 53       	add.b	#-1,	r15	;r3 As==11
    4b5c:	7f 92       	cmp.b	#8,	r15	;r2 As==11
    4b5e:	7d 2c       	jc	$+252    	;abs 0x4c5a
    4b60:	4f 4f       	mov.b	r15,	r15	
    4b62:	0f 5f       	rla	r15		
    4b64:	10 4f c0 61 	br	25024(r15)	;0x61c0(r15)
    4b68:	5f 42 68 11 	mov.b	&0x1168,r15	
    4b6c:	b0 12 f6 4a 	call	#0x4af6	
    4b70:	4b 4f       	mov.b	r15,	r11	
    4b72:	f2 40 03 00 fa 11 	mov.b	#3,	&0x11fa	;#0x0003
    4b78:	5e 42 68 11 	mov.b	&0x1168,r14	
    4b7c:	0a 3c       	jmp	$+22     	;abs 0x4b92
    4b7e:	5f 42 09 13 	mov.b	&0x1309,r15	
    4b82:	b0 12 f6 4a 	call	#0x4af6	
    4b86:	4b 4f       	mov.b	r15,	r11	
    4b88:	f2 40 03 00 fa 11 	mov.b	#3,	&0x11fa	;#0x0003
    4b8e:	5e 42 09 13 	mov.b	&0x1309,r14	
    4b92:	1f 42 44 13 	mov	&0x1344,r15	
    4b96:	b0 12 c8 44 	call	#0x44c8	
    4b9a:	82 4f 44 13 	mov	r15,	&0x1344	
    4b9e:	5b 3c       	jmp	$+184    	;abs 0x4c56
    4ba0:	5f 42 82 11 	mov.b	&0x1182,r15	
    4ba4:	0f 5f       	rla	r15		
    4ba6:	3f 50 6e 11 	add	#4462,	r15	;#0x116e
    4baa:	5f 4f 01 00 	mov.b	1(r15),	r15	;0x0001(r15)
    4bae:	b0 12 f6 4a 	call	#0x4af6	
    4bb2:	4b 4f       	mov.b	r15,	r11	
    4bb4:	59 42 82 11 	mov.b	&0x1182,r9	
    4bb8:	4a 49       	mov.b	r9,	r10	
    4bba:	0d 4a       	mov	r10,	r13	
    4bbc:	0d 5d       	rla	r13		
    4bbe:	3d 50 6e 11 	add	#4462,	r13	;#0x116e
    4bc2:	5e 4d 01 00 	mov.b	1(r13),	r14	;0x0001(r13)
    4bc6:	1f 42 44 13 	mov	&0x1344,r15	
    4bca:	b0 12 c8 44 	call	#0x44c8	
    4bce:	82 4f 44 13 	mov	r15,	&0x1344	
    4bd2:	5d 42 62 11 	mov.b	&0x1162,r13	
    4bd6:	5d 53       	inc.b	r13		
    4bd8:	c2 4d 62 11 	mov.b	r13,	&0x1162	
    4bdc:	59 93       	cmp.b	#1,	r9	;r3 As==01
    4bde:	1b 20       	jnz	$+56     	;abs 0x4c16
    4be0:	5e 42 38 11 	mov.b	&0x1138,r14	
    4be4:	4f 4e       	mov.b	r14,	r15	
    4be6:	1f 52 3e 11 	add	&0x113e,r15	
    4bea:	6f 4f       	mov.b	@r15,	r15	
    4bec:	5e 53       	inc.b	r14		
    4bee:	c2 4e 38 11 	mov.b	r14,	&0x1138	
    4bf2:	c2 9e 3a 11 	cmp.b	r14,	&0x113a	
    4bf6:	03 2c       	jc	$+8      	;abs 0x4bfe
    4bf8:	e2 43 70 11 	mov.b	#2,	&0x1170	;r3 As==10
    4bfc:	4f 43       	clr.b	r15		
    4bfe:	0e 4a       	mov	r10,	r14	
    4c00:	0e 5e       	rla	r14		
    4c02:	3e 50 6e 11 	add	#4462,	r14	;#0x116e
    4c06:	ee 93 00 00 	cmp.b	#2,	0(r14)	;r3 As==10, 0x0000(r14)
    4c0a:	05 24       	jz	$+12     	;abs 0x4c16
    4c0c:	7d 93       	cmp.b	#-1,	r13	;r3 As==11
    4c0e:	03 24       	jz	$+8      	;abs 0x4c16
    4c10:	ce 4f 01 00 	mov.b	r15,	1(r14)	;0x0001(r14)
    4c14:	20 3c       	jmp	$+66     	;abs 0x4c56
    4c16:	e2 42 fa 11 	mov.b	#4,	&0x11fa	;r2 As==10
    4c1a:	1d 3c       	jmp	$+60     	;abs 0x4c56
    4c1c:	5f 42 44 13 	mov.b	&0x1344,r15	
    4c20:	b0 12 f6 4a 	call	#0x4af6	
    4c24:	4b 4f       	mov.b	r15,	r11	
    4c26:	f2 40 05 00 fa 11 	mov.b	#5,	&0x11fa	;#0x0005
    4c2c:	14 3c       	jmp	$+42     	;abs 0x4c56
    4c2e:	1f 42 44 13 	mov	&0x1344,r15	
    4c32:	8f 10       	swpb	r15		
    4c34:	b0 12 f6 4a 	call	#0x4af6	
    4c38:	4b 4f       	mov.b	r15,	r11	
    4c3a:	f2 40 06 00 fa 11 	mov.b	#6,	&0x11fa	;#0x0006
    4c40:	0a 3c       	jmp	$+22     	;abs 0x4c56
    4c42:	b0 12 1e 4b 	call	#0x4b1e	
    4c46:	4b 4f       	mov.b	r15,	r11	
    4c48:	f2 40 07 00 fa 11 	mov.b	#7,	&0x11fa	;#0x0007
    4c4e:	03 3c       	jmp	$+8      	;abs 0x4c56
    4c50:	f2 42 fa 11 	mov.b	#8,	&0x11fa	;r2 As==11
    4c54:	05 3c       	jmp	$+12     	;abs 0x4c60
    4c56:	4b 93       	tst.b	r11		
    4c58:	05 24       	jz	$+12     	;abs 0x4c64
    4c5a:	f2 40 09 00 fa 11 	mov.b	#9,	&0x11fa	;#0x0009
    4c60:	b0 12 6c 46 	call	#0x466c	
    4c64:	39 41       	pop	r9		
    4c66:	3a 41       	pop	r10		
    4c68:	3b 41       	pop	r11		
    4c6a:	30 41       	ret			

00004c6c <LedsP__Led0__set>:
    4c6c:	b0 12 66 45 	call	#0x4566	
    4c70:	f2 d0 10 00 31 00 	bis.b	#16,	&0x0031	;#0x0010
    4c76:	b0 12 78 45 	call	#0x4578	
    4c7a:	30 41       	ret			

00004c7c <LedsP__Led1__set>:
    4c7c:	b0 12 66 45 	call	#0x4566	
    4c80:	f2 d0 20 00 31 00 	bis.b	#32,	&0x0031	;#0x0020
    4c86:	b0 12 78 45 	call	#0x4578	
    4c8a:	30 41       	ret			

00004c8c <LedsP__Led2__set>:
    4c8c:	b0 12 66 45 	call	#0x4566	
    4c90:	f2 d0 40 00 31 00 	bis.b	#64,	&0x0031	;#0x0040
    4c96:	b0 12 78 45 	call	#0x4578	
    4c9a:	30 41       	ret			

00004c9c <TransformAlarmC__0__Counter__get>:
    4c9c:	0b 12       	push	r11		
    4c9e:	0a 12       	push	r10		
    4ca0:	09 12       	push	r9		
    4ca2:	08 12       	push	r8		
    4ca4:	b0 12 66 45 	call	#0x4566	
    4ca8:	4c 4f       	mov.b	r15,	r12	
    4caa:	1a 42 7c 11 	mov	&0x117c,r10	
    4cae:	1b 42 7e 11 	mov	&0x117e,r11	
    4cb2:	1d 42 90 01 	mov	&0x0190,r13	
    4cb6:	01 3c       	jmp	$+4      	;abs 0x4cba
    4cb8:	0d 4f       	mov	r15,	r13	
    4cba:	1f 42 90 01 	mov	&0x0190,r15	
    4cbe:	0d 9f       	cmp	r15,	r13	
    4cc0:	fb 23       	jnz	$-8      	;abs 0x4cb8
    4cc2:	1f 42 80 01 	mov	&0x0180,r15	
    4cc6:	5f f3       	and.b	#1,	r15	;r3 As==01
    4cc8:	0a 24       	jz	$+22     	;abs 0x4cde
    4cca:	1a 53       	inc	r10		
    4ccc:	0b 63       	adc	r11		
    4cce:	1d 42 90 01 	mov	&0x0190,r13	
    4cd2:	01 3c       	jmp	$+4      	;abs 0x4cd6
    4cd4:	0d 4f       	mov	r15,	r13	
    4cd6:	1f 42 90 01 	mov	&0x0190,r15	
    4cda:	0d 9f       	cmp	r15,	r13	
    4cdc:	fb 23       	jnz	$-8      	;abs 0x4cd4
    4cde:	12 c3       	clrc			
    4ce0:	0d 10       	rrc	r13		
    4ce2:	12 c3       	clrc			
    4ce4:	0d 10       	rrc	r13		
    4ce6:	12 c3       	clrc			
    4ce8:	0d 10       	rrc	r13		
    4cea:	12 c3       	clrc			
    4cec:	0d 10       	rrc	r13		
    4cee:	12 c3       	clrc			
    4cf0:	0d 10       	rrc	r13		
    4cf2:	08 4d       	mov	r13,	r8	
    4cf4:	09 43       	clr	r9		
    4cf6:	0e 4a       	mov	r10,	r14	
    4cf8:	0f 4b       	mov	r11,	r15	
    4cfa:	4f ea       	xor.b	r10,	r15	
    4cfc:	0f ea       	xor	r10,	r15	
    4cfe:	8f 10       	swpb	r15		
    4d00:	4e 4e       	mov.b	r14,	r14	
    4d02:	8e 10       	swpb	r14		
    4d04:	0e 5e       	rla	r14		
    4d06:	0f 6f       	rlc	r15		
    4d08:	0e 5e       	rla	r14		
    4d0a:	0f 6f       	rlc	r15		
    4d0c:	0e 5e       	rla	r14		
    4d0e:	0f 6f       	rlc	r15		
    4d10:	08 de       	bis	r14,	r8	
    4d12:	09 df       	bis	r15,	r9	
    4d14:	4f 4c       	mov.b	r12,	r15	
    4d16:	b0 12 78 45 	call	#0x4578	
    4d1a:	0e 48       	mov	r8,	r14	
    4d1c:	0f 49       	mov	r9,	r15	
    4d1e:	38 41       	pop	r8		
    4d20:	39 41       	pop	r9		
    4d22:	3a 41       	pop	r10		
    4d24:	3b 41       	pop	r11		
    4d26:	30 41       	ret			

00004d28 <TransformAlarmC__0__set_alarm>:
    4d28:	0b 12       	push	r11		
    4d2a:	0a 12       	push	r10		
    4d2c:	b0 12 9c 4c 	call	#0x4c9c	
    4d30:	1c 42 6a 11 	mov	&0x116a,r12	
    4d34:	1d 42 6c 11 	mov	&0x116c,r13	
    4d38:	0a 4c       	mov	r12,	r10	
    4d3a:	0b 4d       	mov	r13,	r11	
    4d3c:	1a 52 64 11 	add	&0x1164,r10	
    4d40:	1b 62 66 11 	addc	&0x1166,r11	
    4d44:	0f 9d       	cmp	r13,	r15	
    4d46:	09 28       	jnc	$+20     	;abs 0x4d5a
    4d48:	02 20       	jnz	$+6      	;abs 0x4d4e
    4d4a:	0e 9c       	cmp	r12,	r14	
    4d4c:	06 28       	jnc	$+14     	;abs 0x4d5a
    4d4e:	0b 9d       	cmp	r13,	r11	
    4d50:	10 28       	jnc	$+34     	;abs 0x4d72
    4d52:	09 20       	jnz	$+20     	;abs 0x4d66
    4d54:	0a 9c       	cmp	r12,	r10	
    4d56:	0d 28       	jnc	$+28     	;abs 0x4d72
    4d58:	06 3c       	jmp	$+14     	;abs 0x4d66
    4d5a:	0b 9d       	cmp	r13,	r11	
    4d5c:	04 28       	jnc	$+10     	;abs 0x4d66
    4d5e:	0d 9b       	cmp	r11,	r13	
    4d60:	27 28       	jnc	$+80     	;abs 0x4db0
    4d62:	0a 9c       	cmp	r12,	r10	
    4d64:	25 2c       	jc	$+76     	;abs 0x4db0
    4d66:	0f 9b       	cmp	r11,	r15	
    4d68:	04 28       	jnc	$+10     	;abs 0x4d72
    4d6a:	0b 9f       	cmp	r15,	r11	
    4d6c:	21 28       	jnc	$+68     	;abs 0x4db0
    4d6e:	0e 9a       	cmp	r10,	r14	
    4d70:	1f 2c       	jc	$+64     	;abs 0x4db0
    4d72:	0c 4a       	mov	r10,	r12	
    4d74:	0d 4b       	mov	r11,	r13	
    4d76:	0c 8e       	sub	r14,	r12	
    4d78:	0d 7f       	subc	r15,	r13	
    4d7a:	0d 93       	tst	r13		
    4d7c:	03 20       	jnz	$+8      	;abs 0x4d84
    4d7e:	3c 90 01 04 	cmp	#1025,	r12	;#0x0401
    4d82:	18 28       	jnc	$+50     	;abs 0x4db4
    4d84:	0a 4e       	mov	r14,	r10	
    4d86:	0b 4f       	mov	r15,	r11	
    4d88:	3a 50 00 04 	add	#1024,	r10	;#0x0400
    4d8c:	0b 63       	adc	r11		
    4d8e:	82 4a 6a 11 	mov	r10,	&0x116a	
    4d92:	82 4b 6c 11 	mov	r11,	&0x116c	
    4d96:	0a 4c       	mov	r12,	r10	
    4d98:	0b 4d       	mov	r13,	r11	
    4d9a:	3a 50 00 fc 	add	#-1024,	r10	;#0xfc00
    4d9e:	3b 63       	addc	#-1,	r11	;r3 As==11
    4da0:	82 4a 64 11 	mov	r10,	&0x1164	
    4da4:	82 4b 66 11 	mov	r11,	&0x1166	
    4da8:	3c 40 00 04 	mov	#1024,	r12	;#0x0400
    4dac:	0d 43       	clr	r13		
    4dae:	0a 3c       	jmp	$+22     	;abs 0x4dc4
    4db0:	0c 43       	clr	r12		
    4db2:	0d 43       	clr	r13		
    4db4:	82 4a 6a 11 	mov	r10,	&0x116a	
    4db8:	82 4b 6c 11 	mov	r11,	&0x116c	
    4dbc:	82 43 64 11 	mov	#0,	&0x1164	;r3 As==00
    4dc0:	82 43 66 11 	mov	#0,	&0x1166	;r3 As==00
    4dc4:	0c 5c       	rla	r12		
    4dc6:	0c 5c       	rla	r12		
    4dc8:	0c 5c       	rla	r12		
    4dca:	0c 5c       	rla	r12		
    4dcc:	0c 5c       	rla	r12		
    4dce:	0e 5e       	rla	r14		
    4dd0:	0e 5e       	rla	r14		
    4dd2:	0e 5e       	rla	r14		
    4dd4:	0e 5e       	rla	r14		
    4dd6:	0e 5e       	rla	r14		
    4dd8:	1f 42 90 01 	mov	&0x0190,r15	
    4ddc:	01 3c       	jmp	$+4      	;abs 0x4de0
    4dde:	0f 4d       	mov	r13,	r15	
    4de0:	1d 42 90 01 	mov	&0x0190,r13	
    4de4:	0f 9d       	cmp	r13,	r15	
    4de6:	fb 23       	jnz	$-8      	;abs 0x4dde
    4de8:	0b 4f       	mov	r15,	r11	
    4dea:	0b 8e       	sub	r14,	r11	
    4dec:	0b 9c       	cmp	r12,	r11	
    4dee:	09 28       	jnc	$+20     	;abs 0x4e02
    4df0:	1f 42 90 01 	mov	&0x0190,r15	
    4df4:	01 3c       	jmp	$+4      	;abs 0x4df8
    4df6:	0f 4e       	mov	r14,	r15	
    4df8:	1e 42 90 01 	mov	&0x0190,r14	
    4dfc:	0f 9e       	cmp	r14,	r15	
    4dfe:	fb 23       	jnz	$-8      	;abs 0x4df6
    4e00:	0c 3c       	jmp	$+26     	;abs 0x4e1a
    4e02:	0c 8b       	sub	r11,	r12	
    4e04:	3c 90 03 00 	cmp	#3,	r12	;#0x0003
    4e08:	0c 2c       	jc	$+26     	;abs 0x4e22
    4e0a:	1f 42 90 01 	mov	&0x0190,r15	
    4e0e:	01 3c       	jmp	$+4      	;abs 0x4e12
    4e10:	0f 4e       	mov	r14,	r15	
    4e12:	1e 42 90 01 	mov	&0x0190,r14	
    4e16:	0f 9e       	cmp	r14,	r15	
    4e18:	fb 23       	jnz	$-8      	;abs 0x4e10
    4e1a:	2f 53       	incd	r15		
    4e1c:	82 4f 92 01 	mov	r15,	&0x0192	
    4e20:	03 3c       	jmp	$+8      	;abs 0x4e28
    4e22:	0c 5f       	add	r15,	r12	
    4e24:	82 4c 92 01 	mov	r12,	&0x0192	
    4e28:	b2 f0 fe ff 82 01 	and	#-2,	&0x0182	;#0xfffe
    4e2e:	b2 d0 10 00 82 01 	bis	#16,	&0x0182	;#0x0010
    4e34:	3a 41       	pop	r10		
    4e36:	3b 41       	pop	r11		
    4e38:	30 41       	ret			

00004e3a <Msp430TimerP__1__Event__fired>:
    4e3a:	7f 92       	cmp.b	#8,	r15	;r2 As==11
    4e3c:	50 2c       	jc	$+162    	;abs 0x4ede
    4e3e:	4f 4f       	mov.b	r15,	r15	
    4e40:	0f 5f       	rla	r15		
    4e42:	10 4f d0 61 	br	25040(r15)	;0x61d0(r15)
    4e46:	1f 42 82 01 	mov	&0x0182,r15	
    4e4a:	8f 10       	swpb	r15		
    4e4c:	5f f3       	and.b	#1,	r15	;r3 As==01
    4e4e:	03 24       	jz	$+8      	;abs 0x4e56
    4e50:	1f 42 92 01 	mov	&0x0192,r15	
    4e54:	30 41       	ret			
    4e56:	b2 f0 ef ff 82 01 	and	#-17,	&0x0182	;#0xffef
    4e5c:	82 93 64 11 	tst	&0x1164	
    4e60:	07 20       	jnz	$+16     	;abs 0x4e70
    4e62:	82 93 66 11 	tst	&0x1166	
    4e66:	04 20       	jnz	$+10     	;abs 0x4e70
    4e68:	4f 43       	clr.b	r15		
    4e6a:	b0 12 80 45 	call	#0x4580	
    4e6e:	30 41       	ret			
    4e70:	b0 12 28 4d 	call	#0x4d28	
    4e74:	30 41       	ret			
    4e76:	1f 42 84 01 	mov	&0x0184,r15	
    4e7a:	8f 10       	swpb	r15		
    4e7c:	5f f3       	and.b	#1,	r15	;r3 As==01
    4e7e:	2f 24       	jz	$+96     	;abs 0x4ede
    4e80:	1f 42 94 01 	mov	&0x0194,r15	
    4e84:	30 41       	ret			
    4e86:	1f 42 86 01 	mov	&0x0186,r15	
    4e8a:	8f 10       	swpb	r15		
    4e8c:	5f f3       	and.b	#1,	r15	;r3 As==01
    4e8e:	27 24       	jz	$+80     	;abs 0x4ede
    4e90:	1f 42 96 01 	mov	&0x0196,r15	
    4e94:	30 41       	ret			
    4e96:	1f 42 88 01 	mov	&0x0188,r15	
    4e9a:	8f 10       	swpb	r15		
    4e9c:	5f f3       	and.b	#1,	r15	;r3 As==01
    4e9e:	1f 24       	jz	$+64     	;abs 0x4ede
    4ea0:	1f 42 98 01 	mov	&0x0198,r15	
    4ea4:	30 41       	ret			
    4ea6:	1f 42 8a 01 	mov	&0x018a,r15	
    4eaa:	8f 10       	swpb	r15		
    4eac:	5f f3       	and.b	#1,	r15	;r3 As==01
    4eae:	17 24       	jz	$+48     	;abs 0x4ede
    4eb0:	1f 42 9a 01 	mov	&0x019a,r15	
    4eb4:	30 41       	ret			
    4eb6:	1f 42 8c 01 	mov	&0x018c,r15	
    4eba:	8f 10       	swpb	r15		
    4ebc:	5f f3       	and.b	#1,	r15	;r3 As==01
    4ebe:	0f 24       	jz	$+32     	;abs 0x4ede
    4ec0:	1f 42 9c 01 	mov	&0x019c,r15	
    4ec4:	30 41       	ret			
    4ec6:	1f 42 8e 01 	mov	&0x018e,r15	
    4eca:	8f 10       	swpb	r15		
    4ecc:	5f f3       	and.b	#1,	r15	;r3 As==01
    4ece:	07 24       	jz	$+16     	;abs 0x4ede
    4ed0:	1f 42 9e 01 	mov	&0x019e,r15	
    4ed4:	30 41       	ret			
    4ed6:	92 53 7c 11 	inc	&0x117c	
    4eda:	82 63 7e 11 	adc	&0x117e	
    4ede:	30 41       	ret			

00004ee0 <Msp430UartP__0__ResourceConfigure__configure.constprop.84>:
    4ee0:	0b 12       	push	r11		
    4ee2:	1f 42 00 11 	mov	&0x1100,r15	
    4ee6:	12 c3       	clrc			
    4ee8:	0f 10       	rrc	r15		
    4eea:	c2 4f 0a 13 	mov.b	r15,	&0x130a	
    4eee:	b0 12 66 45 	call	#0x4566	
    4ef2:	4b 4f       	mov.b	r15,	r11	
    4ef4:	d2 43 78 00 	mov.b	#1,	&0x0078	;r3 As==01
    4ef8:	b0 12 92 44 	call	#0x4492	
    4efc:	5e 42 03 11 	mov.b	&0x1103,r14	
    4f00:	7e f0 fa ff 	and.b	#-6,	r14	;#0xfffa
    4f04:	5e d3       	bis.b	#1,	r14	;r3 As==01
    4f06:	c2 4e 78 00 	mov.b	r14,	&0x0078	
    4f0a:	d2 42 04 11 79 00 	mov.b	&0x1104,&0x0079	
    4f10:	d2 42 05 11 7a 00 	mov.b	&0x1105,&0x007a	
    4f16:	1e 42 00 11 	mov	&0x1100,r14	
    4f1a:	c2 4e 7c 00 	mov.b	r14,	&0x007c	
    4f1e:	8e 10       	swpb	r14		
    4f20:	4e 4e       	mov.b	r14,	r14	
    4f22:	c2 4e 7d 00 	mov.b	r14,	&0x007d	
    4f26:	d2 42 02 11 7b 00 	mov.b	&0x1102,&0x007b	
    4f2c:	5e 42 06 11 	mov.b	&0x1106,r14	
    4f30:	7e f0 03 00 	and.b	#3,	r14	;#0x0003
    4f34:	7e 90 03 00 	cmp.b	#3,	r14	;#0x0003
    4f38:	0b 20       	jnz	$+24     	;abs 0x4f50
    4f3a:	f2 d0 40 00 1b 00 	bis.b	#64,	&0x001b	;#0x0040
    4f40:	f2 d0 80 ff 1b 00 	bis.b	#-128,	&0x001b	;#0xff80
    4f46:	5e 42 05 00 	mov.b	&0x0005,r14	
    4f4a:	7e d0 30 00 	bis.b	#48,	r14	;#0x0030
    4f4e:	0f 3c       	jmp	$+32     	;abs 0x4f6e
    4f50:	6e 93       	cmp.b	#2,	r14	;r3 As==10
    4f52:	10 20       	jnz	$+34     	;abs 0x4f74
    4f54:	f2 f0 df ff 05 00 	and.b	#-33,	&0x0005	;#0xffdf
    4f5a:	f2 f0 bf ff 1b 00 	and.b	#-65,	&0x001b	;#0xffbf
    4f60:	f2 d0 80 ff 1b 00 	bis.b	#-128,	&0x001b	;#0xff80
    4f66:	5e 42 05 00 	mov.b	&0x0005,r14	
    4f6a:	7e d0 10 00 	bis.b	#16,	r14	;#0x0010
    4f6e:	c2 4e 05 00 	mov.b	r14,	&0x0005	
    4f72:	12 3c       	jmp	$+38     	;abs 0x4f98
    4f74:	5e 93       	cmp.b	#1,	r14	;r3 As==01
    4f76:	0e 20       	jnz	$+30     	;abs 0x4f94
    4f78:	f2 f0 ef ff 05 00 	and.b	#-17,	&0x0005	;#0xffef
    4f7e:	f2 f0 7f 00 1b 00 	and.b	#127,	&0x001b	;#0x007f
    4f84:	f2 d0 40 00 1b 00 	bis.b	#64,	&0x001b	;#0x0040
    4f8a:	5e 42 05 00 	mov.b	&0x0005,r14	
    4f8e:	7e d0 20 00 	bis.b	#32,	r14	;#0x0020
    4f92:	ed 3f       	jmp	$-36     	;abs 0x4f6e
    4f94:	b0 12 b0 44 	call	#0x44b0	
    4f98:	f2 f0 fe ff 78 00 	and.b	#-2,	&0x0078	;#0xfffe
    4f9e:	f2 f0 cf ff 03 00 	and.b	#-49,	&0x0003	;#0xffcf
    4fa4:	f2 f0 cf ff 01 00 	and.b	#-49,	&0x0001	;#0xffcf
    4faa:	4f 4b       	mov.b	r11,	r15	
    4fac:	b0 12 78 45 	call	#0x4578	
    4fb0:	b0 12 66 45 	call	#0x4566	
    4fb4:	f2 f0 cf ff 03 00 	and.b	#-49,	&0x0003	;#0xffcf
    4fba:	f2 d0 30 00 01 00 	bis.b	#48,	&0x0001	;#0x0030
    4fc0:	b0 12 78 45 	call	#0x4578	
    4fc4:	3b 41       	pop	r11		
    4fc6:	30 41       	ret			

00004fc8 <sig_TIMERA0_VECTOR>:
    4fc8:	0f 12       	push	r15		
    4fca:	0e 12       	push	r14		
    4fcc:	0d 12       	push	r13		
    4fce:	0c 12       	push	r12		
    4fd0:	4f 43       	clr.b	r15		
    4fd2:	b0 12 2a 45 	call	#0x452a	
    4fd6:	3c 41       	pop	r12		
    4fd8:	3d 41       	pop	r13		
    4fda:	3e 41       	pop	r14		
    4fdc:	3f 41       	pop	r15		
    4fde:	b1 c0 f0 00 00 00 	bic	#240,	0(r1)	;#0x00f0, 0x0000(r1)
    4fe4:	00 13       	reti			

00004fe6 <sig_TIMERA1_VECTOR>:
    4fe6:	0f 12       	push	r15		
    4fe8:	0e 12       	push	r14		
    4fea:	0d 12       	push	r13		
    4fec:	0c 12       	push	r12		
    4fee:	1f 42 2e 01 	mov	&0x012e,r15	
    4ff2:	4f 4f       	mov.b	r15,	r15	
    4ff4:	12 c3       	clrc			
    4ff6:	4f 10       	rrc.b	r15		
    4ff8:	b0 12 2a 45 	call	#0x452a	
    4ffc:	3c 41       	pop	r12		
    4ffe:	3d 41       	pop	r13		
    5000:	3e 41       	pop	r14		
    5002:	3f 41       	pop	r15		
    5004:	b1 c0 f0 00 00 00 	bic	#240,	0(r1)	;#0x00f0, 0x0000(r1)
    500a:	00 13       	reti			

0000500c <sig_TIMERB0_VECTOR>:
    500c:	0f 12       	push	r15		
    500e:	0e 12       	push	r14		
    5010:	0d 12       	push	r13		
    5012:	0c 12       	push	r12		
    5014:	4f 43       	clr.b	r15		
    5016:	b0 12 3a 4e 	call	#0x4e3a	
    501a:	3c 41       	pop	r12		
    501c:	3d 41       	pop	r13		
    501e:	3e 41       	pop	r14		
    5020:	3f 41       	pop	r15		
    5022:	b1 c0 f0 00 00 00 	bic	#240,	0(r1)	;#0x00f0, 0x0000(r1)
    5028:	00 13       	reti			

0000502a <sig_TIMERB1_VECTOR>:
    502a:	0f 12       	push	r15		
    502c:	0e 12       	push	r14		
    502e:	0d 12       	push	r13		
    5030:	0c 12       	push	r12		
    5032:	1f 42 1e 01 	mov	&0x011e,r15	
    5036:	4f 4f       	mov.b	r15,	r15	
    5038:	12 c3       	clrc			
    503a:	4f 10       	rrc.b	r15		
    503c:	b0 12 3a 4e 	call	#0x4e3a	
    5040:	3c 41       	pop	r12		
    5042:	3d 41       	pop	r13		
    5044:	3e 41       	pop	r14		
    5046:	3f 41       	pop	r15		
    5048:	b1 c0 f0 00 00 00 	bic	#240,	0(r1)	;#0x00f0, 0x0000(r1)
    504e:	00 13       	reti			

00005050 <printfflush>:
    5050:	b0 12 66 45 	call	#0x4566	
    5054:	d2 93 1e 11 	cmp.b	#1,	&0x111e	;r3 As==01
    5058:	04 20       	jnz	$+10     	;abs 0x5062
    505a:	b0 12 78 45 	call	#0x4578	
    505e:	0f 43       	clr	r15		
    5060:	30 41       	ret			
    5062:	c2 93 20 11 	tst.b	&0x1120	
    5066:	04 20       	jnz	$+10     	;abs 0x5070
    5068:	b0 12 78 45 	call	#0x4578	
    506c:	1f 43       	mov	#1,	r15	;r3 As==01
    506e:	30 41       	ret			
    5070:	d2 43 1e 11 	mov.b	#1,	&0x111e	;r3 As==01
    5074:	b0 12 78 45 	call	#0x4578	
    5078:	b0 12 e8 49 	call	#0x49e8	
    507c:	0f 43       	clr	r15		
    507e:	30 41       	ret			

00005080 <VirtualizeTimerC__0__fireTimers>:
    5080:	0b 12       	push	r11		
    5082:	0a 12       	push	r10		
    5084:	09 12       	push	r9		
    5086:	59 42 8e 11 	mov.b	&0x118e,r9	
    508a:	69 b3       	bit.b	#2,	r9	;r3 As==10
    508c:	64 24       	jz	$+202    	;abs 0x5156
    508e:	1a 42 86 11 	mov	&0x1186,r10	
    5092:	1b 42 88 11 	mov	&0x1188,r11	
    5096:	1c 42 8a 11 	mov	&0x118a,r12	
    509a:	1d 42 8c 11 	mov	&0x118c,r13	
    509e:	0e 8a       	sub	r10,	r14	
    50a0:	0f 7b       	subc	r11,	r15	
    50a2:	0f 9d       	cmp	r13,	r15	
    50a4:	58 28       	jnc	$+178    	;abs 0x5156
    50a6:	02 20       	jnz	$+6      	;abs 0x50ac
    50a8:	0e 9c       	cmp	r12,	r14	
    50aa:	55 28       	jnc	$+172    	;abs 0x5156
    50ac:	59 b3       	bit.b	#1,	r9	;r3 As==01
    50ae:	05 24       	jz	$+12     	;abs 0x50ba
    50b0:	79 f0 fd ff 	and.b	#-3,	r9	;#0xfffd
    50b4:	c2 49 8e 11 	mov.b	r9,	&0x118e	
    50b8:	08 3c       	jmp	$+18     	;abs 0x50ca
    50ba:	0e 4c       	mov	r12,	r14	
    50bc:	0f 4d       	mov	r13,	r15	
    50be:	0e 5a       	add	r10,	r14	
    50c0:	0f 6b       	addc	r11,	r15	
    50c2:	82 4e 86 11 	mov	r14,	&0x1186	
    50c6:	82 4f 88 11 	mov	r15,	&0x1188	
    50ca:	5f 42 46 11 	mov.b	&0x1146,r15	
    50ce:	5f 53       	inc.b	r15		
    50d0:	c2 4f 46 11 	mov.b	r15,	&0x1146	
    50d4:	4f 4f       	mov.b	r15,	r15	
    50d6:	0f 12       	push	r15		
    50d8:	30 12 e0 61 	push	#25056		;#0x61e0
    50dc:	b0 12 18 58 	call	#0x5818	
    50e0:	21 52       	add	#4,	r1	;r2 As==10
    50e2:	b0 12 50 50 	call	#0x5050	
    50e6:	5f 42 46 11 	mov.b	&0x1146,r15	
    50ea:	1f f3       	and	#1,	r15	;r3 As==01
    50ec:	07 24       	jz	$+16     	;abs 0x50fc
    50ee:	b0 12 66 45 	call	#0x4566	
    50f2:	f2 f0 ef ff 31 00 	and.b	#-17,	&0x0031	;#0xffef
    50f8:	b0 12 78 45 	call	#0x4578	
    50fc:	5f 42 46 11 	mov.b	&0x1146,r15	
    5100:	1f f3       	and	#1,	r15	;r3 As==01
    5102:	02 20       	jnz	$+6      	;abs 0x5108
    5104:	b0 12 6c 4c 	call	#0x4c6c	
    5108:	5f 42 46 11 	mov.b	&0x1146,r15	
    510c:	2f f3       	and	#2,	r15	;r3 As==10
    510e:	07 24       	jz	$+16     	;abs 0x511e
    5110:	b0 12 66 45 	call	#0x4566	
    5114:	f2 f0 df ff 31 00 	and.b	#-33,	&0x0031	;#0xffdf
    511a:	b0 12 78 45 	call	#0x4578	
    511e:	5f 42 46 11 	mov.b	&0x1146,r15	
    5122:	2f f3       	and	#2,	r15	;r3 As==10
    5124:	02 20       	jnz	$+6      	;abs 0x512a
    5126:	b0 12 7c 4c 	call	#0x4c7c	
    512a:	5f 42 46 11 	mov.b	&0x1146,r15	
    512e:	2f f2       	and	#4,	r15	;r2 As==10
    5130:	07 24       	jz	$+16     	;abs 0x5140
    5132:	b0 12 66 45 	call	#0x4566	
    5136:	f2 f0 bf ff 31 00 	and.b	#-65,	&0x0031	;#0xffbf
    513c:	b0 12 78 45 	call	#0x4578	
    5140:	5f 42 46 11 	mov.b	&0x1146,r15	
    5144:	2f f2       	and	#4,	r15	;r2 As==10
    5146:	02 20       	jnz	$+6      	;abs 0x514c
    5148:	b0 12 8c 4c 	call	#0x4c8c	
    514c:	f2 92 46 11 	cmp.b	#8,	&0x1146	;r2 As==11
    5150:	02 20       	jnz	$+6      	;abs 0x5156
    5152:	c2 43 46 11 	mov.b	#0,	&0x1146	;r3 As==00
    5156:	5f 43       	mov.b	#1,	r15	;r3 As==01
    5158:	b0 12 80 45 	call	#0x4580	
    515c:	39 41       	pop	r9		
    515e:	3a 41       	pop	r10		
    5160:	3b 41       	pop	r11		
    5162:	30 41       	ret			

00005164 <SchedulerBasicP__TaskBasic__runTask>:
    5164:	0b 12       	push	r11		
    5166:	0a 12       	push	r10		
    5168:	09 12       	push	r9		
    516a:	08 12       	push	r8		
    516c:	07 12       	push	r7		
    516e:	06 12       	push	r6		
    5170:	21 83       	decd	r1		
    5172:	7f 90 0c 00 	cmp.b	#12,	r15	;#0x000c
    5176:	02 28       	jnc	$+6      	;abs 0x517c
    5178:	30 40 40 56 	br	#0x5640	
    517c:	4f 4f       	mov.b	r15,	r15	
    517e:	0f 5f       	rla	r15		
    5180:	10 4f ea 61 	br	25066(r15)	;0x61ea(r15)
    5184:	c2 93 59 11 	tst.b	&0x1159	
    5188:	27 20       	jnz	$+80     	;abs 0x51d8
    518a:	1a 42 04 13 	mov	&0x1304,r10	
    518e:	1b 42 06 13 	mov	&0x1306,r11	
    5192:	b0 12 66 45 	call	#0x4566	
    5196:	18 42 64 11 	mov	&0x1164,r8	
    519a:	19 42 66 11 	mov	&0x1166,r9	
    519e:	18 52 6a 11 	add	&0x116a,r8	
    51a2:	19 62 6c 11 	addc	&0x116c,r9	
    51a6:	b0 12 78 45 	call	#0x4578	
    51aa:	82 4a 04 13 	mov	r10,	&0x1304	
    51ae:	82 4b 06 13 	mov	r11,	&0x1306	
    51b2:	c2 43 59 11 	mov.b	#0,	&0x1159	;r3 As==00
    51b6:	b0 12 66 45 	call	#0x4566	
    51ba:	82 48 6a 11 	mov	r8,	&0x116a	
    51be:	82 49 6c 11 	mov	r9,	&0x116c	
    51c2:	82 4a 64 11 	mov	r10,	&0x1164	
    51c6:	82 4b 66 11 	mov	r11,	&0x1166	
    51ca:	81 4f 00 00 	mov	r15,	0(r1)	;0x0000(r1)
    51ce:	b0 12 28 4d 	call	#0x4d28	
    51d2:	2f 41       	mov	@r1,	r15	
    51d4:	b0 12 78 45 	call	#0x4578	
    51d8:	b0 12 9c 4c 	call	#0x4c9c	
    51dc:	28 3c       	jmp	$+82     	;abs 0x522e
    51de:	b0 12 9c 4c 	call	#0x4c9c	
    51e2:	0a 4e       	mov	r14,	r10	
    51e4:	0b 4f       	mov	r15,	r11	
    51e6:	b2 f0 ef ff 82 01 	and	#-17,	&0x0182	;#0xffef
    51ec:	e2 b3 8e 11 	bit.b	#2,	&0x118e	;r3 As==10
    51f0:	02 20       	jnz	$+6      	;abs 0x51f6
    51f2:	30 40 40 56 	br	#0x5640	
    51f6:	08 4e       	mov	r14,	r8	
    51f8:	09 4f       	mov	r15,	r9	
    51fa:	18 82 86 11 	sub	&0x1186,r8	
    51fe:	19 72 88 11 	subc	&0x1188,r9	
    5202:	1e 42 8a 11 	mov	&0x118a,r14	
    5206:	1f 42 8c 11 	mov	&0x118c,r15	
    520a:	0e 88       	sub	r8,	r14	
    520c:	0f 79       	subc	r9,	r15	
    520e:	08 4e       	mov	r14,	r8	
    5210:	09 4f       	mov	r15,	r9	
    5212:	0f 49       	mov	r9,	r15	
    5214:	3e 93       	cmp	#-1,	r14	;r3 As==11
    5216:	02 24       	jz	$+6      	;abs 0x521c
    5218:	30 40 26 56 	br	#0x5626	
    521c:	39 90 ff 7f 	cmp	#32767,	r9	;#0x7fff
    5220:	02 24       	jz	$+6      	;abs 0x5226
    5222:	30 40 26 56 	br	#0x5626	
    5226:	30 40 40 56 	br	#0x5640	
    522a:	0e 4a       	mov	r10,	r14	
    522c:	0f 4b       	mov	r11,	r15	
    522e:	b0 12 80 50 	call	#0x5080	
    5232:	30 40 40 56 	br	#0x5640	
    5236:	82 48 04 13 	mov	r8,	&0x1304	
    523a:	82 49 06 13 	mov	r9,	&0x1306	
    523e:	d2 43 59 11 	mov.b	#1,	&0x1159	;r3 As==01
    5242:	b0 12 66 45 	call	#0x4566	
    5246:	82 4a 6a 11 	mov	r10,	&0x116a	
    524a:	82 4b 6c 11 	mov	r11,	&0x116c	
    524e:	82 48 64 11 	mov	r8,	&0x1164	
    5252:	82 49 66 11 	mov	r9,	&0x1166	
    5256:	81 4f 00 00 	mov	r15,	0(r1)	;0x0000(r1)
    525a:	b0 12 28 4d 	call	#0x4d28	
    525e:	2f 41       	mov	@r1,	r15	
    5260:	d4 3c       	jmp	$+426    	;abs 0x540a
    5262:	c2 93 0b 13 	tst.b	&0x130b	
    5266:	02 20       	jnz	$+6      	;abs 0x526c
    5268:	30 40 40 56 	br	#0x5640	
    526c:	38 40 7a 11 	mov	#4474,	r8	;#0x117a
    5270:	4b 43       	clr.b	r11		
    5272:	5a 43       	mov.b	#1,	r10	;r3 As==01
    5274:	5f 42 0b 13 	mov.b	&0x130b,r15	
    5278:	4a bf       	bit.b	r15,	r10	
    527a:	0a 24       	jz	$+22     	;abs 0x5290
    527c:	88 43 00 00 	mov	#0,	0(r8)	;r3 As==00, 0x0000(r8)
    5280:	4f ca       	bic.b	r10,	r15	
    5282:	c2 4f 0b 13 	mov.b	r15,	&0x130b	
    5286:	7e 40 03 00 	mov.b	#3,	r14	;#0x0003
    528a:	4f 4b       	mov.b	r11,	r15	
    528c:	b0 12 78 4a 	call	#0x4a78	
    5290:	4a 5a       	rla.b	r10		
    5292:	5b 53       	inc.b	r11		
    5294:	28 53       	incd	r8		
    5296:	7b 92       	cmp.b	#8,	r11	;r2 As==11
    5298:	ed 23       	jnz	$-36     	;abs 0x5274
    529a:	30 40 40 56 	br	#0x5640	
    529e:	5b 42 13 11 	mov.b	&0x1113,r11	
    52a2:	4e 4b       	mov.b	r11,	r14	
    52a4:	0e 5e       	rla	r14		
    52a6:	8e 43 7a 11 	mov	#0,	4474(r14);r3 As==00, 0x117a(r14)
    52aa:	b0 12 76 49 	call	#0x4976	
    52ae:	5e 43       	mov.b	#1,	r14	;r3 As==01
    52b0:	4f 4b       	mov.b	r11,	r15	
    52b2:	30 40 8e 55 	br	#0x558e	
    52b6:	b0 12 66 45 	call	#0x4566	
    52ba:	c2 43 42 13 	mov.b	#0,	&0x1342	;r3 As==00
    52be:	5b 42 fa 11 	mov.b	&0x11fa,r11	
    52c2:	58 43       	mov.b	#1,	r8	;r3 As==01
    52c4:	7b 92       	cmp.b	#8,	r11	;r2 As==11
    52c6:	01 24       	jz	$+4      	;abs 0x52ca
    52c8:	48 43       	clr.b	r8		
    52ca:	5a 43       	mov.b	#1,	r10	;r3 As==01
    52cc:	7b 90 09 00 	cmp.b	#9,	r11	;#0x0009
    52d0:	01 24       	jz	$+4      	;abs 0x52d4
    52d2:	4a 43       	clr.b	r10		
    52d4:	48 93       	tst.b	r8		
    52d6:	02 20       	jnz	$+6      	;abs 0x52dc
    52d8:	4a 93       	tst.b	r10		
    52da:	07 24       	jz	$+16     	;abs 0x52ea
    52dc:	c2 43 fa 11 	mov.b	#0,	&0x11fa	;r3 As==00
    52e0:	5e 42 82 11 	mov.b	&0x1182,r14	
    52e4:	0e 5e       	rla	r14		
    52e6:	ce 43 6e 11 	mov.b	#0,	4462(r14);r3 As==00, 0x116e(r14)
    52ea:	b0 12 78 45 	call	#0x4578	
    52ee:	48 93       	tst.b	r8		
    52f0:	02 20       	jnz	$+6      	;abs 0x52f6
    52f2:	4a 93       	tst.b	r10		
    52f4:	1e 24       	jz	$+62     	;abs 0x5332
    52f6:	b0 12 66 45 	call	#0x4566	
    52fa:	d2 53 09 13 	inc.b	&0x1309	
    52fe:	f2 90 43 00 68 11 	cmp.b	#67,	&0x1168	;#0x0043
    5304:	0e 20       	jnz	$+30     	;abs 0x5322
    5306:	5e 42 73 11 	mov.b	&0x1173,r14	
    530a:	5e 92 72 11 	cmp.b	&0x1172,r14	
    530e:	0c 24       	jz	$+26     	;abs 0x5328
    5310:	5e 53       	inc.b	r14		
    5312:	c2 4e 73 11 	mov.b	r14,	&0x1173	
    5316:	7e 90 06 00 	cmp.b	#6,	r14	;#0x0006
    531a:	06 28       	jnc	$+14     	;abs 0x5328
    531c:	c2 43 73 11 	mov.b	#0,	&0x1173	;r3 As==00
    5320:	03 3c       	jmp	$+8      	;abs 0x5328
    5322:	58 e3       	xor.b	#1,	r8	;r3 As==01
    5324:	5b 43       	mov.b	#1,	r11	;r3 As==01
    5326:	02 3c       	jmp	$+6      	;abs 0x532c
    5328:	4b 43       	clr.b	r11		
    532a:	48 43       	clr.b	r8		
    532c:	b0 12 78 45 	call	#0x4578	
    5330:	03 3c       	jmp	$+8      	;abs 0x5338
    5332:	4b 93       	tst.b	r11		
    5334:	5f 20       	jnz	$+192    	;abs 0x53f4
    5336:	48 43       	clr.b	r8		
    5338:	b0 12 66 45 	call	#0x4566	
    533c:	5a 42 44 11 	mov.b	&0x1144,r10	
    5340:	b0 12 78 45 	call	#0x4578	
    5344:	4a 93       	tst.b	r10		
    5346:	08 24       	jz	$+18     	;abs 0x5358
    5348:	b0 12 66 45 	call	#0x4566	
    534c:	f2 40 0a 00 fa 11 	mov.b	#10,	&0x11fa	;#0x000a
    5352:	b0 12 78 45 	call	#0x4578	
    5356:	41 3c       	jmp	$+132    	;abs 0x53da
    5358:	b0 12 66 45 	call	#0x4566	
    535c:	59 42 6e 11 	mov.b	&0x116e,r9	
    5360:	5a 42 70 11 	mov.b	&0x1170,r10	
    5364:	b0 12 78 45 	call	#0x4578	
    5368:	b0 12 66 45 	call	#0x4566	
    536c:	56 42 72 11 	mov.b	&0x1172,r6	
    5370:	57 42 73 11 	mov.b	&0x1173,r7	
    5374:	b0 12 78 45 	call	#0x4578	
    5378:	46 97       	cmp.b	r7,	r6	
    537a:	20 24       	jz	$+66     	;abs 0x53bc
    537c:	49 93       	tst.b	r9		
    537e:	1e 20       	jnz	$+62     	;abs 0x53bc
    5380:	b0 12 66 45 	call	#0x4566	
    5384:	4a 4f       	mov.b	r15,	r10	
    5386:	e2 43 6e 11 	mov.b	#2,	&0x116e	;r3 As==10
    538a:	b0 12 66 45 	call	#0x4566	
    538e:	57 42 72 11 	mov.b	&0x1172,r7	
    5392:	59 42 73 11 	mov.b	&0x1173,r9	
    5396:	b0 12 78 45 	call	#0x4578	
    539a:	47 99       	cmp.b	r9,	r7	
    539c:	05 24       	jz	$+12     	;abs 0x53a8
    539e:	5e 42 73 11 	mov.b	&0x1173,r14	
    53a2:	5e 4e 74 11 	mov.b	4468(r14),r14	;0x1174(r14)
    53a6:	01 3c       	jmp	$+4      	;abs 0x53aa
    53a8:	4e 43       	clr.b	r14		
    53aa:	c2 4e 6f 11 	mov.b	r14,	&0x116f	
    53ae:	f2 40 43 00 68 11 	mov.b	#67,	&0x1168	;#0x0043
    53b4:	c2 43 82 11 	mov.b	#0,	&0x1182	;r3 As==00
    53b8:	4f 4a       	mov.b	r10,	r15	
    53ba:	0b 3c       	jmp	$+24     	;abs 0x53d2
    53bc:	4f 4a       	mov.b	r10,	r15	
    53be:	7f 53       	add.b	#-1,	r15	;r3 As==11
    53c0:	6f 93       	cmp.b	#2,	r15	;r3 As==10
    53c2:	0b 2c       	jc	$+24     	;abs 0x53da
    53c4:	b0 12 66 45 	call	#0x4566	
    53c8:	f2 40 45 00 68 11 	mov.b	#69,	&0x1168	;#0x0045
    53ce:	d2 43 82 11 	mov.b	#1,	&0x1182	;r3 As==01
    53d2:	b0 12 78 45 	call	#0x4578	
    53d6:	5a 43       	mov.b	#1,	r10	;r3 As==01
    53d8:	01 3c       	jmp	$+4      	;abs 0x53dc
    53da:	4a 43       	clr.b	r10		
    53dc:	4b 93       	tst.b	r11		
    53de:	0b 24       	jz	$+24     	;abs 0x53f6
    53e0:	b0 12 66 45 	call	#0x4566	
    53e4:	c2 48 36 11 	mov.b	r8,	&0x1136	
    53e8:	b0 12 78 45 	call	#0x4578	
    53ec:	7f 42       	mov.b	#8,	r15	;r2 As==11
    53ee:	b0 12 80 45 	call	#0x4580	
    53f2:	01 3c       	jmp	$+4      	;abs 0x53f6
    53f4:	4a 43       	clr.b	r10		
    53f6:	b0 12 66 45 	call	#0x4566	
    53fa:	4b 4f       	mov.b	r15,	r11	
    53fc:	f2 90 0a 00 fa 11 	cmp.b	#10,	&0x11fa	;#0x000a
    5402:	07 20       	jnz	$+16     	;abs 0x5412
    5404:	b0 12 4a 46 	call	#0x464a	
    5408:	4f 4b       	mov.b	r11,	r15	
    540a:	b0 12 78 45 	call	#0x4578	
    540e:	30 40 40 56 	br	#0x5640	
    5412:	b0 12 78 45 	call	#0x4578	
    5416:	4a 93       	tst.b	r10		
    5418:	02 20       	jnz	$+6      	;abs 0x541e
    541a:	30 40 40 56 	br	#0x5640	
    541e:	b0 12 66 45 	call	#0x4566	
    5422:	82 43 44 13 	mov	#0,	&0x1344	;r3 As==00
    5426:	c2 43 62 11 	mov.b	#0,	&0x1162	;r3 As==00
    542a:	d2 43 fa 11 	mov.b	#1,	&0x11fa	;r3 As==01
    542e:	b0 12 78 45 	call	#0x4578	
    5432:	b0 12 1e 4b 	call	#0x4b1e	
    5436:	4f 93       	tst.b	r15		
    5438:	02 20       	jnz	$+6      	;abs 0x543e
    543a:	30 40 40 56 	br	#0x5640	
    543e:	b0 12 66 45 	call	#0x4566	
    5442:	f2 40 09 00 fa 11 	mov.b	#9,	&0x11fa	;#0x0009
    5448:	b0 12 78 45 	call	#0x4578	
    544c:	b0 12 6c 46 	call	#0x466c	
    5450:	30 40 40 56 	br	#0x5640	
    5454:	b0 12 66 45 	call	#0x4566	
    5458:	c2 93 26 11 	tst.b	&0x1126	
    545c:	2b 20       	jnz	$+88     	;abs 0x54b4
    545e:	e2 43 26 11 	mov.b	#2,	&0x1126	;r3 As==10
    5462:	c2 43 00 12 	mov.b	#0,	&0x1200	;r3 As==00
    5466:	b0 12 78 45 	call	#0x4578	
    546a:	b0 12 66 45 	call	#0x4566	
    546e:	4b 4f       	mov.b	r15,	r11	
    5470:	d2 93 08 11 	cmp.b	#1,	&0x1108	;r3 As==01
    5474:	12 20       	jnz	$+38     	;abs 0x549a
    5476:	5e 42 26 11 	mov.b	&0x1126,r14	
    547a:	5e 93       	cmp.b	#1,	r14	;r3 As==01
    547c:	05 20       	jnz	$+12     	;abs 0x5488
    547e:	7f 40 0a 00 	mov.b	#10,	r15	;#0x000a
    5482:	b0 12 80 45 	call	#0x4580	
    5486:	09 3c       	jmp	$+20     	;abs 0x549a
    5488:	6e 93       	cmp.b	#2,	r14	;r3 As==10
    548a:	07 20       	jnz	$+16     	;abs 0x549a
    548c:	d2 42 00 12 08 11 	mov.b	&0x1200,&0x1108	
    5492:	f2 40 03 00 26 11 	mov.b	#3,	&0x1126	;#0x0003
    5498:	01 3c       	jmp	$+4      	;abs 0x549c
    549a:	4f 4b       	mov.b	r11,	r15	
    549c:	b0 12 78 45 	call	#0x4578	
    54a0:	c2 93 08 11 	tst.b	&0x1108	
    54a4:	03 20       	jnz	$+8      	;abs 0x54ac
    54a6:	b0 12 e0 4e 	call	#0x4ee0	
    54aa:	06 3c       	jmp	$+14     	;abs 0x54b8
    54ac:	b0 12 66 45 	call	#0x4566	
    54b0:	c2 43 26 11 	mov.b	#0,	&0x1126	;r3 As==00
    54b4:	b0 12 78 45 	call	#0x4578	
    54b8:	b0 12 66 45 	call	#0x4566	
    54bc:	c2 43 fa 11 	mov.b	#0,	&0x11fa	;r3 As==00
    54c0:	c2 43 5e 11 	mov.b	#0,	&0x115e	;r3 As==00
    54c4:	a2 3f       	jmp	$-186    	;abs 0x540a
    54c6:	7f 40 07 00 	mov.b	#7,	r15	;#0x0007
    54ca:	aa 3c       	jmp	$+342    	;abs 0x5620
    54cc:	b0 12 9c 4a 	call	#0x4a9c	
    54d0:	4f 93       	tst.b	r15		
    54d2:	b6 24       	jz	$+366    	;abs 0x5640
    54d4:	82 93 5c 11 	tst	&0x115c	
    54d8:	b3 20       	jnz	$+360    	;abs 0x5640
    54da:	82 93 0c 13 	tst	&0x130c	
    54de:	b0 20       	jnz	$+354    	;abs 0x5640
    54e0:	b0 12 66 45 	call	#0x4566	
    54e4:	4b 4f       	mov.b	r15,	r11	
    54e6:	f2 90 03 00 26 11 	cmp.b	#3,	&0x1126	;#0x0003
    54ec:	8d 23       	jnz	$-228    	;abs 0x5408
    54ee:	c2 93 08 11 	tst.b	&0x1108	
    54f2:	8a 23       	jnz	$-234    	;abs 0x5408
    54f4:	5d 42 0a 11 	mov.b	&0x110a,r13	
    54f8:	7d 93       	cmp.b	#-1,	r13	;r3 As==11
    54fa:	1b 24       	jz	$+56     	;abs 0x5532
    54fc:	4e 4d       	mov.b	r13,	r14	
    54fe:	5f 4e 5a 11 	mov.b	4442(r14),r15	;0x115a(r14)
    5502:	c2 4f 0a 11 	mov.b	r15,	&0x110a	
    5506:	7f 93       	cmp.b	#-1,	r15	;r3 As==11
    5508:	02 20       	jnz	$+6      	;abs 0x550e
    550a:	f2 43 09 11 	mov.b	#-1,	&0x1109	;r3 As==11
    550e:	fe 43 5a 11 	mov.b	#-1,	4442(r14);r3 As==11, 0x115a(r14)
    5512:	c2 4d 00 12 	mov.b	r13,	&0x1200	
    5516:	f2 43 08 11 	mov.b	#-1,	&0x1108	;r3 As==11
    551a:	d2 43 26 11 	mov.b	#1,	&0x1126	;r3 As==01
    551e:	7f 40 0a 00 	mov.b	#10,	r15	;#0x000a
    5522:	b0 12 80 45 	call	#0x4580	
    5526:	d2 43 78 00 	mov.b	#1,	&0x0078	;r3 As==01
    552a:	f2 f0 cf ff 01 00 	and.b	#-49,	&0x0001	;#0xffcf
    5530:	0d 3c       	jmp	$+28     	;abs 0x554c
    5532:	d2 43 08 11 	mov.b	#1,	&0x1108	;r3 As==01
    5536:	c2 43 26 11 	mov.b	#0,	&0x1126	;r3 As==00
    553a:	d2 43 78 00 	mov.b	#1,	&0x0078	;r3 As==01
    553e:	f2 f0 cf ff 01 00 	and.b	#-49,	&0x0001	;#0xffcf
    5544:	b0 12 b0 44 	call	#0x44b0	
    5548:	b0 12 92 44 	call	#0x4492	
    554c:	b0 12 b0 44 	call	#0x44b0	
    5550:	5b 3f       	jmp	$-328    	;abs 0x5408
    5552:	82 43 3c 11 	mov	#0,	&0x113c	;r3 As==00
    5556:	b0 12 66 45 	call	#0x4566	
    555a:	5b 42 36 11 	mov.b	&0x1136,r11	
    555e:	b0 12 78 45 	call	#0x4578	
    5562:	c2 93 34 11 	tst.b	&0x1134	
    5566:	02 24       	jz	$+6      	;abs 0x556c
    5568:	7b 40 03 00 	mov.b	#3,	r11	;#0x0003
    556c:	1f 42 3e 11 	mov	&0x113e,r15	
    5570:	c2 93 32 11 	tst.b	&0x1132	
    5574:	65 20       	jnz	$+204    	;abs 0x5640
    5576:	c2 93 13 11 	tst.b	&0x1113	
    557a:	62 20       	jnz	$+198    	;abs 0x5640
    557c:	82 9f 7a 11 	cmp	r15,	&0x117a	
    5580:	5f 20       	jnz	$+192    	;abs 0x5640
    5582:	82 43 7a 11 	mov	#0,	&0x117a	;r3 As==00
    5586:	b0 12 76 49 	call	#0x4976	
    558a:	4e 4b       	mov.b	r11,	r14	
    558c:	4f 43       	clr.b	r15		
    558e:	b0 12 78 4a 	call	#0x4a78	
    5592:	56 3c       	jmp	$+174    	;abs 0x5640
    5594:	b0 12 66 45 	call	#0x4566	
    5598:	1a 42 2c 11 	mov	&0x112c,r10	
    559c:	5b 42 4b 11 	mov.b	&0x114b,r11	
    55a0:	b0 12 78 45 	call	#0x4578	
    55a4:	b0 12 66 45 	call	#0x4566	
    55a8:	4e 4b       	mov.b	r11,	r14	
    55aa:	0e 5e       	rla	r14		
    55ac:	8e 4a 0e 11 	mov	r10,	4366(r14);0x110e(r14)
    55b0:	5e 42 42 11 	mov.b	&0x1142,r14	
    55b4:	4b 93       	tst.b	r11		
    55b6:	03 24       	jz	$+8      	;abs 0x55be
    55b8:	7e f0 fb ff 	and.b	#-5,	r14	;#0xfffb
    55bc:	02 3c       	jmp	$+6      	;abs 0x55c2
    55be:	7e f0 fd ff 	and.b	#-3,	r14	;#0xfffd
    55c2:	c2 4e 42 11 	mov.b	r14,	&0x1142	
    55c6:	c2 43 30 11 	mov.b	#0,	&0x1130	;r3 As==00
    55ca:	30 40 0a 54 	br	#0x540a	
    55ce:	b0 12 66 45 	call	#0x4566	
    55d2:	d2 42 00 12 08 11 	mov.b	&0x1200,&0x1108	
    55d8:	f2 40 03 00 26 11 	mov.b	#3,	&0x1126	;#0x0003
    55de:	b0 12 78 45 	call	#0x4578	
    55e2:	c2 93 08 11 	tst.b	&0x1108	
    55e6:	2c 20       	jnz	$+90     	;abs 0x5640
    55e8:	b0 12 e0 4e 	call	#0x4ee0	
    55ec:	29 3c       	jmp	$+84     	;abs 0x5640
    55ee:	f2 43 14 13 	mov.b	#-1,	&0x1314	;r3 As==11
    55f2:	f2 43 13 13 	mov.b	#-1,	&0x1313	;r3 As==11
    55f6:	f2 40 64 00 19 13 	mov.b	#100,	&0x1319	;#0x0064
    55fc:	82 93 7a 11 	tst	&0x117a	
    5600:	0d 20       	jnz	$+28     	;abs 0x561c
    5602:	b2 40 0e 13 7a 11 	mov	#4878,	&0x117a	;#0x130e
    5608:	f2 40 1c 00 17 13 	mov.b	#28,	&0x1317	;#0x001c
    560e:	c2 93 13 11 	tst.b	&0x1113	
    5612:	16 24       	jz	$+46     	;abs 0x5640
    5614:	b0 12 ba 49 	call	#0x49ba	
    5618:	4f 93       	tst.b	r15		
    561a:	12 24       	jz	$+38     	;abs 0x5640
    561c:	7f 40 0b 00 	mov.b	#11,	r15	;#0x000b
    5620:	b0 12 80 45 	call	#0x4580	
    5624:	0d 3c       	jmp	$+28     	;abs 0x5640
    5626:	0f 93       	tst	r15		
    5628:	02 34       	jge	$+6      	;abs 0x562e
    562a:	30 40 2a 52 	br	#0x522a	
    562e:	02 24       	jz	$+6      	;abs 0x5634
    5630:	30 40 36 52 	br	#0x5236	
    5634:	1e 93       	cmp	#1,	r14	;r3 As==01
    5636:	02 2c       	jc	$+6      	;abs 0x563c
    5638:	30 40 2a 52 	br	#0x522a	
    563c:	30 40 36 52 	br	#0x5236	
    5640:	21 53       	incd	r1		
    5642:	36 41       	pop	r6		
    5644:	37 41       	pop	r7		
    5646:	38 41       	pop	r8		
    5648:	39 41       	pop	r9		
    564a:	3a 41       	pop	r10		
    564c:	3b 41       	pop	r11		
    564e:	30 41       	ret			

00005650 <RealMainP__Scheduler__runNextTask>:
    5650:	f2 93 08 13 	cmp.b	#-1,	&0x1308	;r3 As==11
    5654:	08 24       	jz	$+18     	;abs 0x5666
    5656:	b0 12 0c 45 	call	#0x450c	
    565a:	7f 93       	cmp.b	#-1,	r15	;r3 As==11
    565c:	06 24       	jz	$+14     	;abs 0x566a
    565e:	b0 12 64 51 	call	#0x5164	
    5662:	5f 43       	mov.b	#1,	r15	;r3 As==01
    5664:	30 41       	ret			
    5666:	4f 43       	clr.b	r15		
    5668:	30 41       	ret			
    566a:	4f 43       	clr.b	r15		
    566c:	30 41       	ret			

0000566e <sig_UART1RX_VECTOR>:
    566e:	0f 12       	push	r15		
    5670:	0e 12       	push	r14		
    5672:	0d 12       	push	r13		
    5674:	0c 12       	push	r12		
    5676:	5e 42 7e 00 	mov.b	&0x007e,r14	
    567a:	5f 42 26 11 	mov.b	&0x1126,r15	
    567e:	4f 93       	tst.b	r15		
    5680:	31 24       	jz	$+100    	;abs 0x56e4
    5682:	2d 3c       	jmp	$+92     	;abs 0x56de
    5684:	c2 93 08 11 	tst.b	&0x1108	
    5688:	2d 20       	jnz	$+92     	;abs 0x56e4
    568a:	1d 42 5c 11 	mov	&0x115c,r13	
    568e:	0d 93       	tst	r13		
    5690:	0e 24       	jz	$+30     	;abs 0x56ae
    5692:	1f 42 f8 11 	mov	&0x11f8,r15	
    5696:	0d 5f       	add	r15,	r13	
    5698:	cd 4e 00 00 	mov.b	r14,	0(r13)	;0x0000(r13)
    569c:	1f 53       	inc	r15		
    569e:	82 4f f8 11 	mov	r15,	&0x11f8	
    56a2:	1f 92 84 11 	cmp	&0x1184,r15	
    56a6:	1e 28       	jnc	$+62     	;abs 0x56e4
    56a8:	82 43 5c 11 	mov	#0,	&0x115c	;r3 As==00
    56ac:	1b 3c       	jmp	$+56     	;abs 0x56e4
    56ae:	7e 90 7e 00 	cmp.b	#126,	r14	;#0x007e
    56b2:	03 20       	jnz	$+8      	;abs 0x56ba
    56b4:	4e 43       	clr.b	r14		
    56b6:	5f 43       	mov.b	#1,	r15	;r3 As==01
    56b8:	0f 3c       	jmp	$+32     	;abs 0x56d8
    56ba:	7e 90 7d 00 	cmp.b	#125,	r14	;#0x007d
    56be:	03 20       	jnz	$+8      	;abs 0x56c6
    56c0:	e2 d3 28 11 	bis.b	#2,	&0x1128	;r3 As==10
    56c4:	0f 3c       	jmp	$+32     	;abs 0x56e4
    56c6:	e2 b3 28 11 	bit.b	#2,	&0x1128	;r3 As==10
    56ca:	05 24       	jz	$+12     	;abs 0x56d6
    56cc:	f2 f0 fd ff 28 11 	and.b	#-3,	&0x1128	;#0xfffd
    56d2:	7e e0 20 00 	xor.b	#32,	r14	;#0x0020
    56d6:	4f 43       	clr.b	r15		
    56d8:	b0 12 92 46 	call	#0x4692	
    56dc:	03 3c       	jmp	$+8      	;abs 0x56e4
    56de:	7f 90 03 00 	cmp.b	#3,	r15	;#0x0003
    56e2:	d0 27       	jz	$-94     	;abs 0x5684
    56e4:	3c 41       	pop	r12		
    56e6:	3d 41       	pop	r13		
    56e8:	3e 41       	pop	r14		
    56ea:	3f 41       	pop	r15		
    56ec:	b1 c0 f0 00 00 00 	bic	#240,	0(r1)	;#0x00f0, 0x0000(r1)
    56f2:	00 13       	reti			

000056f4 <sig_UART1TX_VECTOR>:
    56f4:	0f 12       	push	r15		
    56f6:	0e 12       	push	r14		
    56f8:	0d 12       	push	r13		
    56fa:	0c 12       	push	r12		
    56fc:	5f 42 26 11 	mov.b	&0x1126,r15	
    5700:	4f 93       	tst.b	r15		
    5702:	1e 24       	jz	$+62     	;abs 0x5740
    5704:	1a 3c       	jmp	$+54     	;abs 0x573a
    5706:	c2 93 08 11 	tst.b	&0x1108	
    570a:	1a 20       	jnz	$+54     	;abs 0x5740
    570c:	c2 93 4a 11 	tst.b	&0x114a	
    5710:	0f 20       	jnz	$+32     	;abs 0x5730
    5712:	1f 42 60 11 	mov	&0x1160,r15	
    5716:	1f 92 fe 11 	cmp	&0x11fe,r15	
    571a:	0a 2c       	jc	$+22     	;abs 0x5730
    571c:	1e 42 0c 13 	mov	&0x130c,r14	
    5720:	0e 5f       	add	r15,	r14	
    5722:	6e 4e       	mov.b	@r14,	r14	
    5724:	1f 53       	inc	r15		
    5726:	82 4f 60 11 	mov	r15,	&0x1160	
    572a:	c2 4e 7f 00 	mov.b	r14,	&0x007f	
    572e:	08 3c       	jmp	$+18     	;abs 0x5740
    5730:	82 43 0c 13 	mov	#0,	&0x130c	;r3 As==00
    5734:	b0 12 38 4b 	call	#0x4b38	
    5738:	03 3c       	jmp	$+8      	;abs 0x5740
    573a:	7f 90 03 00 	cmp.b	#3,	r15	;#0x0003
    573e:	e3 27       	jz	$-56     	;abs 0x5706
    5740:	3c 41       	pop	r12		
    5742:	3d 41       	pop	r13		
    5744:	3e 41       	pop	r14		
    5746:	3f 41       	pop	r15		
    5748:	b1 c0 f0 00 00 00 	bic	#240,	0(r1)	;#0x00f0, 0x0000(r1)
    574e:	00 13       	reti			

00005750 <putchar>:
    5750:	0b 12       	push	r11		
    5752:	0b 4f       	mov	r15,	r11	
    5754:	c2 93 1e 11 	tst.b	&0x111e	
    5758:	08 20       	jnz	$+18     	;abs 0x576a
    575a:	f2 90 7d 00 20 11 	cmp.b	#125,	&0x1120	;#0x007d
    5760:	04 28       	jnc	$+10     	;abs 0x576a
    5762:	d2 43 1e 11 	mov.b	#1,	&0x111e	;r3 As==01
    5766:	b0 12 e8 49 	call	#0x49e8	
    576a:	b0 12 66 45 	call	#0x4566	
    576e:	4e 4f       	mov.b	r15,	r14	
    5770:	5c 42 20 11 	mov.b	&0x1120,r12	
    5774:	7c 90 fa ff 	cmp.b	#-6,	r12	;#0xfffa
    5778:	15 2c       	jc	$+44     	;abs 0x57a4
    577a:	5f 42 22 11 	mov.b	&0x1122,r15	
    577e:	4d 4f       	mov.b	r15,	r13	
    5780:	cd 4b 02 12 	mov.b	r11,	4610(r13);0x1202(r13)
    5784:	5f 53       	inc.b	r15		
    5786:	c2 4f 22 11 	mov.b	r15,	&0x1122	
    578a:	7f 90 fa ff 	cmp.b	#-6,	r15	;#0xfffa
    578e:	02 20       	jnz	$+6      	;abs 0x5794
    5790:	c2 43 22 11 	mov.b	#0,	&0x1122	;r3 As==00
    5794:	5c 53       	inc.b	r12		
    5796:	c2 4c 20 11 	mov.b	r12,	&0x1120	
    579a:	4f 4e       	mov.b	r14,	r15	
    579c:	b0 12 78 45 	call	#0x4578	
    57a0:	0f 43       	clr	r15		
    57a2:	03 3c       	jmp	$+8      	;abs 0x57aa
    57a4:	b0 12 78 45 	call	#0x4578	
    57a8:	3f 43       	mov	#-1,	r15	;r3 As==11
    57aa:	3b 41       	pop	r11		
    57ac:	30 41       	ret			

000057ae <memset>:
    57ae:	0b 12       	push	r11		
    57b0:	0a 12       	push	r10		
    57b2:	09 12       	push	r9		
    57b4:	08 12       	push	r8		
    57b6:	3d 90 06 00 	cmp	#6,	r13	;#0x0006
    57ba:	09 2c       	jc	$+20     	;abs 0x57ce
    57bc:	0c 4f       	mov	r15,	r12	
    57be:	04 3c       	jmp	$+10     	;abs 0x57c8
    57c0:	cc 4e 00 00 	mov.b	r14,	0(r12)	;0x0000(r12)
    57c4:	1c 53       	inc	r12		
    57c6:	3d 53       	add	#-1,	r13	;r3 As==11
    57c8:	0d 93       	tst	r13		
    57ca:	fa 23       	jnz	$-10     	;abs 0x57c0
    57cc:	20 3c       	jmp	$+66     	;abs 0x580e
    57ce:	4e 4e       	mov.b	r14,	r14	
    57d0:	4b 4e       	mov.b	r14,	r11	
    57d2:	0b 93       	tst	r11		
    57d4:	03 24       	jz	$+8      	;abs 0x57dc
    57d6:	0c 4b       	mov	r11,	r12	
    57d8:	8c 10       	swpb	r12		
    57da:	0b dc       	bis	r12,	r11	
    57dc:	1f b3       	bit	#1,	r15	;r3 As==01
    57de:	06 24       	jz	$+14     	;abs 0x57ec
    57e0:	3d 53       	add	#-1,	r13	;r3 As==11
    57e2:	cf 4e 00 00 	mov.b	r14,	0(r15)	;0x0000(r15)
    57e6:	09 4f       	mov	r15,	r9	
    57e8:	19 53       	inc	r9		
    57ea:	01 3c       	jmp	$+4      	;abs 0x57ee
    57ec:	09 4f       	mov	r15,	r9	
    57ee:	0c 4d       	mov	r13,	r12	
    57f0:	12 c3       	clrc			
    57f2:	0c 10       	rrc	r12		
    57f4:	0a 49       	mov	r9,	r10	
    57f6:	08 4c       	mov	r12,	r8	
    57f8:	8a 4b 00 00 	mov	r11,	0(r10)	;0x0000(r10)
    57fc:	2a 53       	incd	r10		
    57fe:	38 53       	add	#-1,	r8	;r3 As==11
    5800:	fb 23       	jnz	$-8      	;abs 0x57f8
    5802:	0c 5c       	rla	r12		
    5804:	0c 59       	add	r9,	r12	
    5806:	1d f3       	and	#1,	r13	;r3 As==01
    5808:	02 24       	jz	$+6      	;abs 0x580e
    580a:	cc 4e 00 00 	mov.b	r14,	0(r12)	;0x0000(r12)
    580e:	38 41       	pop	r8		
    5810:	39 41       	pop	r9		
    5812:	3a 41       	pop	r10		
    5814:	3b 41       	pop	r11		
    5816:	30 41       	ret			

00005818 <printf>:
    5818:	0d 41       	mov	r1,	r13	
    581a:	2d 53       	incd	r13		
    581c:	3e 4d       	mov	@r13+,	r14	
    581e:	3f 40 50 57 	mov	#22352,	r15	;#0x5750
    5822:	b0 12 ce 59 	call	#0x59ce	
    5826:	30 41       	ret			

00005828 <vprintf>:
    5828:	0d 4e       	mov	r14,	r13	
    582a:	0e 4f       	mov	r15,	r14	
    582c:	3f 40 50 57 	mov	#22352,	r15	;#0x5750
    5830:	b0 12 ce 59 	call	#0x59ce	
    5834:	30 41       	ret			

00005836 <print_field>:
    5836:	0b 12       	push	r11		
    5838:	0a 12       	push	r10		
    583a:	09 12       	push	r9		
    583c:	08 12       	push	r8		
    583e:	07 12       	push	r7		
    5840:	06 12       	push	r6		
    5842:	05 12       	push	r5		
    5844:	04 12       	push	r4		
    5846:	31 82       	sub	#8,	r1	;r2 As==11
    5848:	08 4f       	mov	r15,	r8	
    584a:	81 4e 04 00 	mov	r14,	4(r1)	;0x0004(r1)
    584e:	09 4d       	mov	r13,	r9	
    5850:	1f 41 1a 00 	mov	26(r1),	r15	;0x001a(r1)
    5854:	1d 41 1c 00 	mov	28(r1),	r13	;0x001c(r1)
    5858:	4c 4d       	mov.b	r13,	r12	
    585a:	04 4d       	mov	r13,	r4	
    585c:	84 10       	swpb	r4		
    585e:	45 44       	mov.b	r4,	r5	
    5860:	4e 4f       	mov.b	r15,	r14	
    5862:	7e b0 40 00 	bit.b	#64,	r14	;#0x0040
    5866:	11 24       	jz	$+36     	;abs 0x588a
    5868:	f1 40 30 00 00 00 	mov.b	#48,	0(r1)	;#0x0030, 0x0000(r1)
    586e:	0e 4f       	mov	r15,	r14	
    5870:	8e 10       	swpb	r14		
    5872:	5e f3       	and.b	#1,	r14	;r3 As==01
    5874:	03 24       	jz	$+8      	;abs 0x587c
    5876:	7e 40 58 00 	mov.b	#88,	r14	;#0x0058
    587a:	02 3c       	jmp	$+6      	;abs 0x5880
    587c:	7e 40 78 00 	mov.b	#120,	r14	;#0x0078
    5880:	c1 4e 01 00 	mov.b	r14,	1(r1)	;0x0001(r1)
    5884:	0c 41       	mov	r1,	r12	
    5886:	2c 53       	incd	r12		
    5888:	0f 3c       	jmp	$+32     	;abs 0x58a8
    588a:	7e f0 20 00 	and.b	#32,	r14	;#0x0020
    588e:	04 24       	jz	$+10     	;abs 0x5898
    5890:	f1 40 30 00 00 00 	mov.b	#48,	0(r1)	;#0x0030, 0x0000(r1)
    5896:	04 3c       	jmp	$+10     	;abs 0x58a0
    5898:	4c 93       	tst.b	r12		
    589a:	05 24       	jz	$+12     	;abs 0x58a6
    589c:	c1 4d 00 00 	mov.b	r13,	0(r1)	;0x0000(r1)
    58a0:	0c 41       	mov	r1,	r12	
    58a2:	1c 53       	inc	r12		
    58a4:	01 3c       	jmp	$+4      	;abs 0x58a8
    58a6:	0c 41       	mov	r1,	r12	
    58a8:	0a 4c       	mov	r12,	r10	
    58aa:	8c 10       	swpb	r12		
    58ac:	8c 11       	sxt	r12		
    58ae:	8c 10       	swpb	r12		
    58b0:	8c 11       	sxt	r12		
    58b2:	0b 4c       	mov	r12,	r11	
    58b4:	06 41       	mov	r1,	r6	
    58b6:	0c 41       	mov	r1,	r12	
    58b8:	8c 10       	swpb	r12		
    58ba:	8c 11       	sxt	r12		
    58bc:	8c 10       	swpb	r12		
    58be:	8c 11       	sxt	r12		
    58c0:	07 4c       	mov	r12,	r7	
    58c2:	0a 86       	sub	r6,	r10	
    58c4:	0b 77       	subc	r7,	r11	
    58c6:	0e 4f       	mov	r15,	r14	
    58c8:	8e 10       	swpb	r14		
    58ca:	c1 4e 02 00 	mov.b	r14,	2(r1)	;0x0002(r1)
    58ce:	6e f2       	and.b	#4,	r14	;r2 As==10
    58d0:	02 24       	jz	$+6      	;abs 0x58d6
    58d2:	07 45       	mov	r5,	r7	
    58d4:	01 3c       	jmp	$+4      	;abs 0x58d8
    58d6:	37 43       	mov	#-1,	r7	;r3 As==11
    58d8:	4f 4f       	mov.b	r15,	r15	
    58da:	7f b0 10 00 	bit.b	#16,	r15	;#0x0010
    58de:	3c 20       	jnz	$+122    	;abs 0x5958
    58e0:	1d 41 04 00 	mov	4(r1),	r13	;0x0004(r1)
    58e4:	3d 53       	add	#-1,	r13	;r3 As==11
    58e6:	1d 53       	inc	r13		
    58e8:	cd 93 00 00 	tst.b	0(r13)		;0x0000(r13)
    58ec:	fc 23       	jnz	$-6      	;abs 0x58e6
    58ee:	1d 81 04 00 	sub	4(r1),	r13	;0x0004(r1)
    58f2:	09 9a       	cmp	r10,	r9	
    58f4:	02 28       	jnc	$+6      	;abs 0x58fa
    58f6:	09 8a       	sub	r10,	r9	
    58f8:	01 3c       	jmp	$+4      	;abs 0x58fc
    58fa:	09 43       	clr	r9		
    58fc:	e1 b3 02 00 	bit.b	#2,	2(r1)	;r3 As==10, 0x0002(r1)
    5900:	05 24       	jz	$+12     	;abs 0x590c
    5902:	09 95       	cmp	r5,	r9	
    5904:	02 28       	jnc	$+6      	;abs 0x590a
    5906:	09 85       	sub	r5,	r9	
    5908:	01 3c       	jmp	$+4      	;abs 0x590c
    590a:	09 43       	clr	r9		
    590c:	05 4d       	mov	r13,	r5	
    590e:	07 9d       	cmp	r13,	r7	
    5910:	01 2c       	jc	$+4      	;abs 0x5914
    5912:	05 47       	mov	r7,	r5	
    5914:	4f 93       	tst.b	r15		
    5916:	0d 38       	jl	$+28     	;abs 0x5932
    5918:	f1 40 20 00 06 00 	mov.b	#32,	6(r1)	;#0x0020, 0x0006(r1)
    591e:	06 43       	clr	r6		
    5920:	0b 43       	clr	r11		
    5922:	0e 3c       	jmp	$+30     	;abs 0x5940
    5924:	0f 41       	mov	r1,	r15	
    5926:	0f 56       	add	r6,	r15	
    5928:	6f 4f       	mov.b	@r15,	r15	
    592a:	8f 11       	sxt	r15		
    592c:	16 53       	inc	r6		
    592e:	88 12       	call	r8		
    5930:	01 3c       	jmp	$+4      	;abs 0x5934
    5932:	06 43       	clr	r6		
    5934:	06 9a       	cmp	r10,	r6	
    5936:	f6 3b       	jl	$-18     	;abs 0x5924
    5938:	0b 4a       	mov	r10,	r11	
    593a:	f1 40 30 00 06 00 	mov.b	#48,	6(r1)	;#0x0030, 0x0006(r1)
    5940:	05 8b       	sub	r11,	r5	
    5942:	05 3c       	jmp	$+12     	;abs 0x594e
    5944:	5f 41 06 00 	mov.b	6(r1),	r15	;0x0006(r1)
    5948:	8f 11       	sxt	r15		
    594a:	88 12       	call	r8		
    594c:	1b 53       	inc	r11		
    594e:	0f 45       	mov	r5,	r15	
    5950:	0f 5b       	add	r11,	r15	
    5952:	0f 99       	cmp	r9,	r15	
    5954:	f7 2b       	jnc	$-16     	;abs 0x5944
    5956:	0a 3c       	jmp	$+22     	;abs 0x596c
    5958:	06 43       	clr	r6		
    595a:	0b 43       	clr	r11		
    595c:	07 3c       	jmp	$+16     	;abs 0x596c
    595e:	1b 53       	inc	r11		
    5960:	0f 41       	mov	r1,	r15	
    5962:	0f 56       	add	r6,	r15	
    5964:	6f 4f       	mov.b	@r15,	r15	
    5966:	8f 11       	sxt	r15		
    5968:	16 53       	inc	r6		
    596a:	88 12       	call	r8		
    596c:	06 9a       	cmp	r10,	r6	
    596e:	f7 3b       	jl	$-16     	;abs 0x595e
    5970:	e1 b3 02 00 	bit.b	#2,	2(r1)	;r3 As==10, 0x0002(r1)
    5974:	02 24       	jz	$+6      	;abs 0x597a
    5976:	4a 44       	mov.b	r4,	r10	
    5978:	08 3c       	jmp	$+18     	;abs 0x598a
    597a:	1a 41 04 00 	mov	4(r1),	r10	;0x0004(r1)
    597e:	0a 8b       	sub	r11,	r10	
    5980:	0d 3c       	jmp	$+28     	;abs 0x599c
    5982:	3f 40 30 00 	mov	#48,	r15	;#0x0030
    5986:	88 12       	call	r8		
    5988:	7a 53       	add.b	#-1,	r10	;r3 As==11
    598a:	4a 93       	tst.b	r10		
    598c:	fa 23       	jnz	$-10     	;abs 0x5982
    598e:	44 44       	mov.b	r4,	r4	
    5990:	0b 54       	add	r4,	r11	
    5992:	f3 3f       	jmp	$-24     	;abs 0x597a
    5994:	37 53       	add	#-1,	r7	;r3 As==11
    5996:	8f 11       	sxt	r15		
    5998:	88 12       	call	r8		
    599a:	1b 53       	inc	r11		
    599c:	0f 4a       	mov	r10,	r15	
    599e:	0f 5b       	add	r11,	r15	
    59a0:	6f 4f       	mov.b	@r15,	r15	
    59a2:	4f 93       	tst.b	r15		
    59a4:	07 24       	jz	$+16     	;abs 0x59b4
    59a6:	07 93       	tst	r7		
    59a8:	f5 23       	jnz	$-20     	;abs 0x5994
    59aa:	04 3c       	jmp	$+10     	;abs 0x59b4
    59ac:	3f 40 20 00 	mov	#32,	r15	;#0x0020
    59b0:	88 12       	call	r8		
    59b2:	1b 53       	inc	r11		
    59b4:	0b 99       	cmp	r9,	r11	
    59b6:	fa 2b       	jnc	$-10     	;abs 0x59ac
    59b8:	0f 4b       	mov	r11,	r15	
    59ba:	31 52       	add	#8,	r1	;r2 As==11
    59bc:	34 41       	pop	r4		
    59be:	35 41       	pop	r5		
    59c0:	36 41       	pop	r6		
    59c2:	37 41       	pop	r7		
    59c4:	38 41       	pop	r8		
    59c6:	39 41       	pop	r9		
    59c8:	3a 41       	pop	r10		
    59ca:	3b 41       	pop	r11		
    59cc:	30 41       	ret			

000059ce <vuprintf>:
    59ce:	0b 12       	push	r11		
    59d0:	0a 12       	push	r10		
    59d2:	09 12       	push	r9		
    59d4:	08 12       	push	r8		
    59d6:	07 12       	push	r7		
    59d8:	06 12       	push	r6		
    59da:	05 12       	push	r5		
    59dc:	04 12       	push	r4		
    59de:	31 50 b6 ff 	add	#-74,	r1	;#0xffb6
    59e2:	81 4f 3a 00 	mov	r15,	58(r1)	;0x003a(r1)
    59e6:	06 4e       	mov	r14,	r6	
    59e8:	05 4d       	mov	r13,	r5	
    59ea:	81 4e 3e 00 	mov	r14,	62(r1)	;0x003e(r1)
    59ee:	c1 43 2f 00 	mov.b	#0,	47(r1)	;r3 As==00, 0x002f(r1)
    59f2:	c1 43 2b 00 	mov.b	#0,	43(r1)	;r3 As==00, 0x002b(r1)
    59f6:	c1 43 2e 00 	mov.b	#0,	46(r1)	;r3 As==00, 0x002e(r1)
    59fa:	c1 43 2a 00 	mov.b	#0,	42(r1)	;r3 As==00, 0x002a(r1)
    59fe:	81 43 30 00 	mov	#0,	48(r1)	;r3 As==00, 0x0030(r1)
    5a02:	81 43 26 00 	mov	#0,	38(r1)	;r3 As==00, 0x0026(r1)
    5a06:	07 43       	clr	r7		
    5a08:	81 43 2c 00 	mov	#0,	44(r1)	;r3 As==00, 0x002c(r1)
    5a0c:	0e 41       	mov	r1,	r14	
    5a0e:	3e 50 1c 00 	add	#28,	r14	;#0x001c
    5a12:	81 4e 1c 00 	mov	r14,	28(r1)	;0x001c(r1)
    5a16:	30 40 48 60 	br	#0x6048	
    5a1a:	0f 46       	mov	r6,	r15	
    5a1c:	1f 53       	inc	r15		
    5a1e:	81 4f 40 00 	mov	r15,	64(r1)	;0x0040(r1)
    5a22:	07 93       	tst	r7		
    5a24:	1e 20       	jnz	$+62     	;abs 0x5a62
    5a26:	7e 90 25 00 	cmp.b	#37,	r14	;#0x0025
    5a2a:	13 20       	jnz	$+40     	;abs 0x5a52
    5a2c:	81 43 00 00 	mov	#0,	0(r1)	;r3 As==00, 0x0000(r1)
    5a30:	81 43 02 00 	mov	#0,	2(r1)	;r3 As==00, 0x0002(r1)
    5a34:	81 46 3e 00 	mov	r6,	62(r1)	;0x003e(r1)
    5a38:	c1 43 2f 00 	mov.b	#0,	47(r1)	;r3 As==00, 0x002f(r1)
    5a3c:	c1 43 2b 00 	mov.b	#0,	43(r1)	;r3 As==00, 0x002b(r1)
    5a40:	c1 43 2e 00 	mov.b	#0,	46(r1)	;r3 As==00, 0x002e(r1)
    5a44:	c1 43 2a 00 	mov.b	#0,	42(r1)	;r3 As==00, 0x002a(r1)
    5a48:	81 43 30 00 	mov	#0,	48(r1)	;r3 As==00, 0x0030(r1)
    5a4c:	30 40 3e 60 	br	#0x603e	
    5a50:	05 47       	mov	r7,	r5	
    5a52:	8e 11       	sxt	r14		
    5a54:	0f 4e       	mov	r14,	r15	
    5a56:	91 12 3c 00 	call	60(r1)		;0x003c(r1)
    5a5a:	91 53 2c 00 	inc	44(r1)		;0x002c(r1)
    5a5e:	30 40 24 60 	br	#0x6024	
    5a62:	7e 90 63 00 	cmp.b	#99,	r14	;#0x0063
    5a66:	c5 24       	jz	$+396    	;abs 0x5bf2
    5a68:	7e 90 64 00 	cmp.b	#100,	r14	;#0x0064
    5a6c:	27 34       	jge	$+80     	;abs 0x5abc
    5a6e:	7e 90 30 00 	cmp.b	#48,	r14	;#0x0030
    5a72:	94 24       	jz	$+298    	;abs 0x5b9c
    5a74:	7e 90 31 00 	cmp.b	#49,	r14	;#0x0031
    5a78:	1a 34       	jge	$+54     	;abs 0x5aae
    5a7a:	7e 90 2a 00 	cmp.b	#42,	r14	;#0x002a
    5a7e:	77 24       	jz	$+240    	;abs 0x5b6e
    5a80:	7e 90 2b 00 	cmp.b	#43,	r14	;#0x002b
    5a84:	0a 34       	jge	$+22     	;abs 0x5a9a
    5a86:	7e 90 23 00 	cmp.b	#35,	r14	;#0x0023
    5a8a:	42 24       	jz	$+134    	;abs 0x5b10
    5a8c:	7e 90 25 00 	cmp.b	#37,	r14	;#0x0025
    5a90:	e0 27       	jz	$-62     	;abs 0x5a52
    5a92:	7e 90 20 00 	cmp.b	#32,	r14	;#0x0020
    5a96:	32 20       	jnz	$+102    	;abs 0x5afc
    5a98:	56 3c       	jmp	$+174    	;abs 0x5b46
    5a9a:	7e 90 2d 00 	cmp.b	#45,	r14	;#0x002d
    5a9e:	49 24       	jz	$+148    	;abs 0x5b32
    5aa0:	7e 90 2e 00 	cmp.b	#46,	r14	;#0x002e
    5aa4:	5b 24       	jz	$+184    	;abs 0x5b5c
    5aa6:	7e 90 2b 00 	cmp.b	#43,	r14	;#0x002b
    5aaa:	28 20       	jnz	$+82     	;abs 0x5afc
    5aac:	47 3c       	jmp	$+144    	;abs 0x5b3c
    5aae:	7e 90 3a 00 	cmp.b	#58,	r14	;#0x003a
    5ab2:	8c 38       	jl	$+282    	;abs 0x5bcc
    5ab4:	7e 90 58 00 	cmp.b	#88,	r14	;#0x0058
    5ab8:	21 20       	jnz	$+68     	;abs 0x5afc
    5aba:	e9 3c       	jmp	$+468    	;abs 0x5c8e
    5abc:	7e 90 6f 00 	cmp.b	#111,	r14	;#0x006f
    5ac0:	24 24       	jz	$+74     	;abs 0x5b0a
    5ac2:	7e 90 70 00 	cmp.b	#112,	r14	;#0x0070
    5ac6:	0a 34       	jge	$+22     	;abs 0x5adc
    5ac8:	7e 90 69 00 	cmp.b	#105,	r14	;#0x0069
    5acc:	e3 24       	jz	$+456    	;abs 0x5c94
    5ace:	7e 90 6c 00 	cmp.b	#108,	r14	;#0x006c
    5ad2:	22 24       	jz	$+70     	;abs 0x5b18
    5ad4:	7e 90 64 00 	cmp.b	#100,	r14	;#0x0064
    5ad8:	11 20       	jnz	$+36     	;abs 0x5afc
    5ada:	dc 3c       	jmp	$+442    	;abs 0x5c94
    5adc:	7e 90 73 00 	cmp.b	#115,	r14	;#0x0073
    5ae0:	98 24       	jz	$+306    	;abs 0x5c12
    5ae2:	7e 90 74 00 	cmp.b	#116,	r14	;#0x0074
    5ae6:	04 34       	jge	$+10     	;abs 0x5af0
    5ae8:	7e 90 70 00 	cmp.b	#112,	r14	;#0x0070
    5aec:	07 20       	jnz	$+16     	;abs 0x5afc
    5aee:	b8 3c       	jmp	$+370    	;abs 0x5c60
    5af0:	7e 90 75 00 	cmp.b	#117,	r14	;#0x0075
    5af4:	d1 24       	jz	$+420    	;abs 0x5c98
    5af6:	7e 90 78 00 	cmp.b	#120,	r14	;#0x0078
    5afa:	d2 24       	jz	$+422    	;abs 0x5ca0
    5afc:	19 41 3e 00 	mov	62(r1),	r9	;0x003e(r1)
    5b00:	18 41 2c 00 	mov	44(r1),	r8	;0x002c(r1)
    5b04:	08 89       	sub	r9,	r8	
    5b06:	30 40 12 60 	br	#0x6012	
    5b0a:	b1 42 28 00 	mov	#8,	40(r1)	;r2 As==11, 0x0028(r1)
    5b0e:	cb 3c       	jmp	$+408    	;abs 0x5ca6
    5b10:	f1 d2 00 00 	bis.b	#8,	0(r1)	;r2 As==11, 0x0000(r1)
    5b14:	30 40 42 60 	br	#0x6042	
    5b18:	69 41       	mov.b	@r1,	r9	
    5b1a:	59 f3       	and.b	#1,	r9	;r3 As==01
    5b1c:	6e 41       	mov.b	@r1,	r14	
    5b1e:	04 24       	jz	$+10     	;abs 0x5b28
    5b20:	7e f0 fe ff 	and.b	#-2,	r14	;#0xfffe
    5b24:	6e d3       	bis.b	#2,	r14	;r3 As==10
    5b26:	01 3c       	jmp	$+4      	;abs 0x5b2a
    5b28:	5e d3       	bis.b	#1,	r14	;r3 As==01
    5b2a:	c1 4e 00 00 	mov.b	r14,	0(r1)	;0x0000(r1)
    5b2e:	30 40 42 60 	br	#0x6042	
    5b32:	f1 d0 10 00 00 00 	bis.b	#16,	0(r1)	;#0x0010, 0x0000(r1)
    5b38:	30 40 42 60 	br	#0x6042	
    5b3c:	f1 40 2b 00 02 00 	mov.b	#43,	2(r1)	;#0x002b, 0x0002(r1)
    5b42:	30 40 42 60 	br	#0x6042	
    5b46:	f1 90 2b 00 02 00 	cmp.b	#43,	2(r1)	;#0x002b, 0x0002(r1)
    5b4c:	02 20       	jnz	$+6      	;abs 0x5b52
    5b4e:	30 40 42 60 	br	#0x6042	
    5b52:	f1 40 20 00 02 00 	mov.b	#32,	2(r1)	;#0x0020, 0x0002(r1)
    5b58:	30 40 42 60 	br	#0x6042	
    5b5c:	c1 93 2a 00 	tst.b	42(r1)		;0x002a(r1)
    5b60:	02 24       	jz	$+6      	;abs 0x5b66
    5b62:	30 40 28 60 	br	#0x6028	
    5b66:	d1 43 2e 00 	mov.b	#1,	46(r1)	;r3 As==01, 0x002e(r1)
    5b6a:	30 40 42 60 	br	#0x6042	
    5b6e:	0e 45       	mov	r5,	r14	
    5b70:	2e 53       	incd	r14		
    5b72:	2a 45       	mov	@r5,	r10	
    5b74:	0a 93       	tst	r10		
    5b76:	03 38       	jl	$+8      	;abs 0x5b7e
    5b78:	81 4a 26 00 	mov	r10,	38(r1)	;0x0026(r1)
    5b7c:	0d 3c       	jmp	$+28     	;abs 0x5b98
    5b7e:	c1 93 2e 00 	tst.b	46(r1)		;0x002e(r1)
    5b82:	02 24       	jz	$+6      	;abs 0x5b88
    5b84:	30 40 38 60 	br	#0x6038	
    5b88:	f1 d0 10 00 00 00 	bis.b	#16,	0(r1)	;#0x0010, 0x0000(r1)
    5b8e:	3a e3       	inv	r10		
    5b90:	81 4a 26 00 	mov	r10,	38(r1)	;0x0026(r1)
    5b94:	91 53 26 00 	inc	38(r1)		;0x0026(r1)
    5b98:	05 4e       	mov	r14,	r5	
    5b9a:	27 3c       	jmp	$+80     	;abs 0x5bea
    5b9c:	81 93 26 00 	tst	38(r1)		;0x0026(r1)
    5ba0:	15 20       	jnz	$+44     	;abs 0x5bcc
    5ba2:	c1 93 2e 00 	tst.b	46(r1)		;0x002e(r1)
    5ba6:	12 20       	jnz	$+38     	;abs 0x5bcc
    5ba8:	69 41       	mov.b	@r1,	r9	
    5baa:	79 f0 10 00 	and.b	#16,	r9	;#0x0010
    5bae:	5e 43       	mov.b	#1,	r14	;r3 As==01
    5bb0:	01 24       	jz	$+4      	;abs 0x5bb4
    5bb2:	4e 43       	clr.b	r14		
    5bb4:	4e 4e       	mov.b	r14,	r14	
    5bb6:	0e 11       	rra	r14		
    5bb8:	0e 43       	clr	r14		
    5bba:	4e 10       	rrc.b	r14		
    5bbc:	6a 41       	mov.b	@r1,	r10	
    5bbe:	7a f0 7f 00 	and.b	#127,	r10	;#0x007f
    5bc2:	4a de       	bis.b	r14,	r10	
    5bc4:	c1 4a 00 00 	mov.b	r10,	0(r1)	;0x0000(r1)
    5bc8:	30 40 42 60 	br	#0x6042	
    5bcc:	1a 41 26 00 	mov	38(r1),	r10	;0x0026(r1)
    5bd0:	0a 5a       	rla	r10		
    5bd2:	0c 4a       	mov	r10,	r12	
    5bd4:	0c 5c       	rla	r12		
    5bd6:	0c 5c       	rla	r12		
    5bd8:	0a 5c       	add	r12,	r10	
    5bda:	81 4a 26 00 	mov	r10,	38(r1)	;0x0026(r1)
    5bde:	b1 50 d0 ff 26 00 	add	#-48,	38(r1)	;#0xffd0, 0x0026(r1)
    5be4:	8e 11       	sxt	r14		
    5be6:	81 5e 26 00 	add	r14,	38(r1)	;0x0026(r1)
    5bea:	d1 43 2a 00 	mov.b	#1,	42(r1)	;r3 As==01, 0x002a(r1)
    5bee:	30 40 42 60 	br	#0x6042	
    5bf2:	07 45       	mov	r5,	r7	
    5bf4:	27 53       	incd	r7		
    5bf6:	6e 45       	mov.b	@r5,	r14	
    5bf8:	c1 93 2e 00 	tst.b	46(r1)		;0x002e(r1)
    5bfc:	03 20       	jnz	$+8      	;abs 0x5c04
    5bfe:	c1 93 2a 00 	tst.b	42(r1)		;0x002a(r1)
    5c02:	26 27       	jz	$-434    	;abs 0x5a50
    5c04:	c1 4e 04 00 	mov.b	r14,	4(r1)	;0x0004(r1)
    5c08:	c1 43 05 00 	mov.b	#0,	5(r1)	;r3 As==00, 0x0005(r1)
    5c0c:	0e 41       	mov	r1,	r14	
    5c0e:	2e 52       	add	#4,	r14	;r2 As==10
    5c10:	03 3c       	jmp	$+8      	;abs 0x5c18
    5c12:	07 45       	mov	r5,	r7	
    5c14:	27 53       	incd	r7		
    5c16:	2e 45       	mov	@r5,	r14	
    5c18:	c1 93 2e 00 	tst.b	46(r1)		;0x002e(r1)
    5c1c:	07 24       	jz	$+16     	;abs 0x5c2c
    5c1e:	e1 d2 01 00 	bis.b	#4,	1(r1)	;r2 As==10, 0x0001(r1)
    5c22:	1f 41 26 00 	mov	38(r1),	r15	;0x0026(r1)
    5c26:	c1 4f 03 00 	mov.b	r15,	3(r1)	;0x0003(r1)
    5c2a:	06 3c       	jmp	$+14     	;abs 0x5c38
    5c2c:	c1 93 2a 00 	tst.b	42(r1)		;0x002a(r1)
    5c30:	03 24       	jz	$+8      	;abs 0x5c38
    5c32:	91 41 26 00 30 00 	mov	38(r1),	48(r1)	;0x0026(r1), 0x0030(r1)
    5c38:	0e 93       	tst	r14		
    5c3a:	02 20       	jnz	$+6      	;abs 0x5c40
    5c3c:	3e 40 0e 62 	mov	#25102,	r14	;#0x620e
    5c40:	11 12 04 00 	push	4(r1)		;0x0004(r1)
    5c44:	11 12 04 00 	push	4(r1)		;0x0004(r1)
    5c48:	1d 41 34 00 	mov	52(r1),	r13	;0x0034(r1)
    5c4c:	1f 41 3e 00 	mov	62(r1),	r15	;0x003e(r1)
    5c50:	b0 12 36 58 	call	#0x5836	
    5c54:	21 52       	add	#4,	r1	;r2 As==10
    5c56:	81 5f 2c 00 	add	r15,	44(r1)	;0x002c(r1)
    5c5a:	05 47       	mov	r7,	r5	
    5c5c:	30 40 24 60 	br	#0x6024	
    5c60:	07 45       	mov	r5,	r7	
    5c62:	27 53       	incd	r7		
    5c64:	29 45       	mov	@r5,	r9	
    5c66:	81 49 1e 00 	mov	r9,	30(r1)	;0x001e(r1)
    5c6a:	5e 43       	mov.b	#1,	r14	;r3 As==01
    5c6c:	09 93       	tst	r9		
    5c6e:	01 20       	jnz	$+4      	;abs 0x5c72
    5c70:	4e 43       	clr.b	r14		
    5c72:	4e 5e       	rla.b	r14		
    5c74:	4e 5e       	rla.b	r14		
    5c76:	4e 5e       	rla.b	r14		
    5c78:	6a 41       	mov.b	@r1,	r10	
    5c7a:	7a f0 f7 ff 	and.b	#-9,	r10	;#0xfff7
    5c7e:	4a de       	bis.b	r14,	r10	
    5c80:	c1 4a 00 00 	mov.b	r10,	0(r1)	;0x0000(r1)
    5c84:	05 47       	mov	r7,	r5	
    5c86:	b1 40 10 00 28 00 	mov	#16,	40(r1)	;#0x0010, 0x0028(r1)
    5c8c:	53 3c       	jmp	$+168    	;abs 0x5d34
    5c8e:	d1 d3 01 00 	bis.b	#1,	1(r1)	;r3 As==01, 0x0001(r1)
    5c92:	06 3c       	jmp	$+14     	;abs 0x5ca0
    5c94:	e1 d2 00 00 	bis.b	#4,	0(r1)	;r2 As==10, 0x0000(r1)
    5c98:	b1 40 0a 00 28 00 	mov	#10,	40(r1)	;#0x000a, 0x0028(r1)
    5c9e:	03 3c       	jmp	$+8      	;abs 0x5ca6
    5ca0:	b1 40 10 00 28 00 	mov	#16,	40(r1)	;#0x0010, 0x0028(r1)
    5ca6:	6b 41       	mov.b	@r1,	r11	
    5ca8:	6b b3       	bit.b	#2,	r11	;r3 As==10
    5caa:	24 24       	jz	$+74     	;abs 0x5cf4
    5cac:	0c 45       	mov	r5,	r12	
    5cae:	3c 52       	add	#8,	r12	;r2 As==11
    5cb0:	28 45       	mov	@r5,	r8	
    5cb2:	17 45 02 00 	mov	2(r5),	r7	;0x0002(r5)
    5cb6:	16 45 04 00 	mov	4(r5),	r6	;0x0004(r5)
    5cba:	1b 45 06 00 	mov	6(r5),	r11	;0x0006(r5)
    5cbe:	81 48 1e 00 	mov	r8,	30(r1)	;0x001e(r1)
    5cc2:	81 47 20 00 	mov	r7,	32(r1)	;0x0020(r1)
    5cc6:	81 46 22 00 	mov	r6,	34(r1)	;0x0022(r1)
    5cca:	81 4b 24 00 	mov	r11,	36(r1)	;0x0024(r1)
    5cce:	d1 43 2b 00 	mov.b	#1,	43(r1)	;r3 As==01, 0x002b(r1)
    5cd2:	08 93       	tst	r8		
    5cd4:	06 20       	jnz	$+14     	;abs 0x5ce2
    5cd6:	07 93       	tst	r7		
    5cd8:	04 20       	jnz	$+10     	;abs 0x5ce2
    5cda:	06 93       	tst	r6		
    5cdc:	02 20       	jnz	$+6      	;abs 0x5ce2
    5cde:	0b 93       	tst	r11		
    5ce0:	02 24       	jz	$+6      	;abs 0x5ce6
    5ce2:	c1 43 2b 00 	mov.b	#0,	43(r1)	;r3 As==00, 0x002b(r1)
    5ce6:	0b 5b       	rla	r11		
    5ce8:	0b 43       	clr	r11		
    5cea:	0b 6b       	rlc	r11		
    5cec:	c1 4b 2f 00 	mov.b	r11,	47(r1)	;0x002f(r1)
    5cf0:	05 4c       	mov	r12,	r5	
    5cf2:	20 3c       	jmp	$+66     	;abs 0x5d34
    5cf4:	5b f3       	and.b	#1,	r11	;r3 As==01
    5cf6:	07 45       	mov	r5,	r7	
    5cf8:	0d 24       	jz	$+28     	;abs 0x5d14
    5cfa:	27 52       	add	#4,	r7	;r2 As==10
    5cfc:	28 45       	mov	@r5,	r8	
    5cfe:	1b 45 02 00 	mov	2(r5),	r11	;0x0002(r5)
    5d02:	81 48 1e 00 	mov	r8,	30(r1)	;0x001e(r1)
    5d06:	81 4b 20 00 	mov	r11,	32(r1)	;0x0020(r1)
    5d0a:	d1 43 2b 00 	mov.b	#1,	43(r1)	;r3 As==01, 0x002b(r1)
    5d0e:	08 93       	tst	r8		
    5d10:	09 20       	jnz	$+20     	;abs 0x5d24
    5d12:	06 3c       	jmp	$+14     	;abs 0x5d20
    5d14:	27 53       	incd	r7		
    5d16:	2b 45       	mov	@r5,	r11	
    5d18:	81 4b 1e 00 	mov	r11,	30(r1)	;0x001e(r1)
    5d1c:	d1 43 2b 00 	mov.b	#1,	43(r1)	;r3 As==01, 0x002b(r1)
    5d20:	0b 93       	tst	r11		
    5d22:	02 24       	jz	$+6      	;abs 0x5d28
    5d24:	c1 43 2b 00 	mov.b	#0,	43(r1)	;r3 As==00, 0x002b(r1)
    5d28:	0b 5b       	rla	r11		
    5d2a:	0b 43       	clr	r11		
    5d2c:	0b 6b       	rlc	r11		
    5d2e:	c1 4b 2f 00 	mov.b	r11,	47(r1)	;0x002f(r1)
    5d32:	05 47       	mov	r7,	r5	
    5d34:	f1 b2 00 00 	bit.b	#8,	0(r1)	;r2 As==11, 0x0000(r1)
    5d38:	12 24       	jz	$+38     	;abs 0x5d5e
    5d3a:	c1 93 2b 00 	tst.b	43(r1)		;0x002b(r1)
    5d3e:	0f 20       	jnz	$+32     	;abs 0x5d5e
    5d40:	68 41       	mov.b	@r1,	r8	
    5d42:	b1 90 10 00 28 00 	cmp	#16,	40(r1)	;#0x0010, 0x0028(r1)
    5d48:	03 20       	jnz	$+8      	;abs 0x5d50
    5d4a:	78 d0 40 00 	bis.b	#64,	r8	;#0x0040
    5d4e:	05 3c       	jmp	$+12     	;abs 0x5d5a
    5d50:	b1 92 28 00 	cmp	#8,	40(r1)	;r2 As==11, 0x0028(r1)
    5d54:	04 20       	jnz	$+10     	;abs 0x5d5e
    5d56:	78 d0 20 00 	bis.b	#32,	r8	;#0x0020
    5d5a:	c1 48 00 00 	mov.b	r8,	0(r1)	;0x0000(r1)
    5d5e:	68 41       	mov.b	@r1,	r8	
    5d60:	68 b2       	bit.b	#4,	r8	;r2 As==10
    5d62:	30 24       	jz	$+98     	;abs 0x5dc4
    5d64:	c1 93 2f 00 	tst.b	47(r1)		;0x002f(r1)
    5d68:	2d 24       	jz	$+92     	;abs 0x5dc4
    5d6a:	f1 40 2d 00 02 00 	mov.b	#45,	2(r1)	;#0x002d, 0x0002(r1)
    5d70:	68 b3       	bit.b	#2,	r8	;r3 As==10
    5d72:	11 24       	jz	$+36     	;abs 0x5d96
    5d74:	b1 e3 1e 00 	xor	#-1,	30(r1)	;r3 As==11, 0x001e(r1)
    5d78:	b1 e3 20 00 	xor	#-1,	32(r1)	;r3 As==11, 0x0020(r1)
    5d7c:	b1 e3 22 00 	xor	#-1,	34(r1)	;r3 As==11, 0x0022(r1)
    5d80:	b1 e3 24 00 	xor	#-1,	36(r1)	;r3 As==11, 0x0024(r1)
    5d84:	91 53 1e 00 	inc	30(r1)		;0x001e(r1)
    5d88:	81 63 20 00 	adc	32(r1)		;0x0020(r1)
    5d8c:	81 63 22 00 	adc	34(r1)		;0x0022(r1)
    5d90:	81 63 24 00 	adc	36(r1)		;0x0024(r1)
    5d94:	17 3c       	jmp	$+48     	;abs 0x5dc4
    5d96:	58 b3       	bit.b	#1,	r8	;r3 As==01
    5d98:	0f 24       	jz	$+32     	;abs 0x5db8
    5d9a:	1a 41 1e 00 	mov	30(r1),	r10	;0x001e(r1)
    5d9e:	1b 41 20 00 	mov	32(r1),	r11	;0x0020(r1)
    5da2:	3a e3       	inv	r10		
    5da4:	3b e3       	inv	r11		
    5da6:	0e 4a       	mov	r10,	r14	
    5da8:	0f 4b       	mov	r11,	r15	
    5daa:	1e 53       	inc	r14		
    5dac:	0f 63       	adc	r15		
    5dae:	81 4e 1e 00 	mov	r14,	30(r1)	;0x001e(r1)
    5db2:	81 4f 20 00 	mov	r15,	32(r1)	;0x0020(r1)
    5db6:	06 3c       	jmp	$+14     	;abs 0x5dc4
    5db8:	1a 41 1e 00 	mov	30(r1),	r10	;0x001e(r1)
    5dbc:	3a e3       	inv	r10		
    5dbe:	1a 53       	inc	r10		
    5dc0:	81 4a 1e 00 	mov	r10,	30(r1)	;0x001e(r1)
    5dc4:	c1 43 1b 00 	mov.b	#0,	27(r1)	;r3 As==00, 0x001b(r1)
    5dc8:	68 b3       	bit.b	#2,	r8	;r3 As==10
    5dca:	6a 24       	jz	$+214    	;abs 0x5ea0
    5dcc:	16 41 1e 00 	mov	30(r1),	r6	;0x001e(r1)
    5dd0:	91 41 20 00 3c 00 	mov	32(r1),	60(r1)	;0x0020(r1), 0x003c(r1)
    5dd6:	18 41 22 00 	mov	34(r1),	r8	;0x0022(r1)
    5dda:	14 41 24 00 	mov	36(r1),	r4	;0x0024(r1)
    5dde:	07 41       	mov	r1,	r7	
    5de0:	37 50 1a 00 	add	#26,	r7	;#0x001a
    5de4:	09 46       	mov	r6,	r9	
    5de6:	91 41 28 00 32 00 	mov	40(r1),	50(r1)	;0x0028(r1), 0x0032(r1)
    5dec:	1b 41 28 00 	mov	40(r1),	r11	;0x0028(r1)
    5df0:	8b 10       	swpb	r11		
    5df2:	8b 11       	sxt	r11		
    5df4:	8b 10       	swpb	r11		
    5df6:	8b 11       	sxt	r11		
    5df8:	81 4b 34 00 	mov	r11,	52(r1)	;0x0034(r1)
    5dfc:	81 4b 36 00 	mov	r11,	54(r1)	;0x0036(r1)
    5e00:	81 4b 38 00 	mov	r11,	56(r1)	;0x0038(r1)
    5e04:	11 12 3a 00 	push	58(r1)		;0x003a(r1)
    5e08:	11 12 3a 00 	push	58(r1)		;0x003a(r1)
    5e0c:	11 12 3a 00 	push	58(r1)		;0x003a(r1)
    5e10:	11 12 3a 00 	push	58(r1)		;0x003a(r1)
    5e14:	0c 49       	mov	r9,	r12	
    5e16:	1d 41 44 00 	mov	68(r1),	r13	;0x0044(r1)
    5e1a:	0e 48       	mov	r8,	r14	
    5e1c:	0f 44       	mov	r4,	r15	
    5e1e:	b0 12 52 61 	call	#0x6152	
    5e22:	31 52       	add	#8,	r1	;r2 As==11
    5e24:	0b 4c       	mov	r12,	r11	
    5e26:	3c 90 0a 00 	cmp	#10,	r12	;#0x000a
    5e2a:	05 34       	jge	$+12     	;abs 0x5e36
    5e2c:	7b 50 30 00 	add.b	#48,	r11	;#0x0030
    5e30:	c7 4b 00 00 	mov.b	r11,	0(r7)	;0x0000(r7)
    5e34:	0c 3c       	jmp	$+26     	;abs 0x5e4e
    5e36:	4b 4c       	mov.b	r12,	r11	
    5e38:	d1 b3 01 00 	bit.b	#1,	1(r1)	;r3 As==01, 0x0001(r1)
    5e3c:	03 24       	jz	$+8      	;abs 0x5e44
    5e3e:	7a 40 37 00 	mov.b	#55,	r10	;#0x0037
    5e42:	02 3c       	jmp	$+6      	;abs 0x5e48
    5e44:	7a 40 57 00 	mov.b	#87,	r10	;#0x0057
    5e48:	4a 5b       	add.b	r11,	r10	
    5e4a:	c7 4a 00 00 	mov.b	r10,	0(r7)	;0x0000(r7)
    5e4e:	06 47       	mov	r7,	r6	
    5e50:	36 53       	add	#-1,	r6	;r3 As==11
    5e52:	11 12 3a 00 	push	58(r1)		;0x003a(r1)
    5e56:	11 12 3a 00 	push	58(r1)		;0x003a(r1)
    5e5a:	11 12 3a 00 	push	58(r1)		;0x003a(r1)
    5e5e:	11 12 3a 00 	push	58(r1)		;0x003a(r1)
    5e62:	0c 49       	mov	r9,	r12	
    5e64:	1d 41 44 00 	mov	68(r1),	r13	;0x0044(r1)
    5e68:	0e 48       	mov	r8,	r14	
    5e6a:	0f 44       	mov	r4,	r15	
    5e6c:	b0 12 2c 61 	call	#0x612c	
    5e70:	31 52       	add	#8,	r1	;r2 As==11
    5e72:	09 4c       	mov	r12,	r9	
    5e74:	81 4d 3c 00 	mov	r13,	60(r1)	;0x003c(r1)
    5e78:	08 4e       	mov	r14,	r8	
    5e7a:	04 4f       	mov	r15,	r4	
    5e7c:	37 53       	add	#-1,	r7	;r3 As==11
    5e7e:	0c 93       	tst	r12		
    5e80:	b2 23       	jnz	$-154    	;abs 0x5de6
    5e82:	0d 93       	tst	r13		
    5e84:	b0 23       	jnz	$-158    	;abs 0x5de6
    5e86:	0e 93       	tst	r14		
    5e88:	ae 23       	jnz	$-162    	;abs 0x5de6
    5e8a:	0f 93       	tst	r15		
    5e8c:	ac 23       	jnz	$-166    	;abs 0x5de6
    5e8e:	81 43 1e 00 	mov	#0,	30(r1)	;r3 As==00, 0x001e(r1)
    5e92:	81 43 20 00 	mov	#0,	32(r1)	;r3 As==00, 0x0020(r1)
    5e96:	81 43 22 00 	mov	#0,	34(r1)	;r3 As==00, 0x0022(r1)
    5e9a:	81 43 24 00 	mov	#0,	36(r1)	;r3 As==00, 0x0024(r1)
    5e9e:	6c 3c       	jmp	$+218    	;abs 0x5f78
    5ea0:	58 b3       	bit.b	#1,	r8	;r3 As==01
    5ea2:	3e 24       	jz	$+126    	;abs 0x5f20
    5ea4:	14 41 1e 00 	mov	30(r1),	r4	;0x001e(r1)
    5ea8:	17 41 20 00 	mov	32(r1),	r7	;0x0020(r1)
    5eac:	08 41       	mov	r1,	r8	
    5eae:	38 50 1a 00 	add	#26,	r8	;#0x001a
    5eb2:	19 41 28 00 	mov	40(r1),	r9	;0x0028(r1)
    5eb6:	89 10       	swpb	r9		
    5eb8:	89 11       	sxt	r9		
    5eba:	89 10       	swpb	r9		
    5ebc:	89 11       	sxt	r9		
    5ebe:	1c 41 28 00 	mov	40(r1),	r12	;0x0028(r1)
    5ec2:	0d 49       	mov	r9,	r13	
    5ec4:	0e 44       	mov	r4,	r14	
    5ec6:	0f 47       	mov	r7,	r15	
    5ec8:	b0 12 c4 60 	call	#0x60c4	
    5ecc:	0b 4e       	mov	r14,	r11	
    5ece:	3e 90 0a 00 	cmp	#10,	r14	;#0x000a
    5ed2:	05 34       	jge	$+12     	;abs 0x5ede
    5ed4:	7b 50 30 00 	add.b	#48,	r11	;#0x0030
    5ed8:	c8 4b 00 00 	mov.b	r11,	0(r8)	;0x0000(r8)
    5edc:	0c 3c       	jmp	$+26     	;abs 0x5ef6
    5ede:	4b 4e       	mov.b	r14,	r11	
    5ee0:	d1 b3 01 00 	bit.b	#1,	1(r1)	;r3 As==01, 0x0001(r1)
    5ee4:	03 24       	jz	$+8      	;abs 0x5eec
    5ee6:	7a 40 37 00 	mov.b	#55,	r10	;#0x0037
    5eea:	02 3c       	jmp	$+6      	;abs 0x5ef0
    5eec:	7a 40 57 00 	mov.b	#87,	r10	;#0x0057
    5ef0:	4a 5b       	add.b	r11,	r10	
    5ef2:	c8 4a 00 00 	mov.b	r10,	0(r8)	;0x0000(r8)
    5ef6:	06 48       	mov	r8,	r6	
    5ef8:	36 53       	add	#-1,	r6	;r3 As==11
    5efa:	1c 41 28 00 	mov	40(r1),	r12	;0x0028(r1)
    5efe:	0d 49       	mov	r9,	r13	
    5f00:	0e 44       	mov	r4,	r14	
    5f02:	0f 47       	mov	r7,	r15	
    5f04:	b0 12 8e 60 	call	#0x608e	
    5f08:	04 4e       	mov	r14,	r4	
    5f0a:	07 4f       	mov	r15,	r7	
    5f0c:	38 53       	add	#-1,	r8	;r3 As==11
    5f0e:	0e 93       	tst	r14		
    5f10:	d0 23       	jnz	$-94     	;abs 0x5eb2
    5f12:	0f 93       	tst	r15		
    5f14:	ce 23       	jnz	$-98     	;abs 0x5eb2
    5f16:	81 43 1e 00 	mov	#0,	30(r1)	;r3 As==00, 0x001e(r1)
    5f1a:	81 43 20 00 	mov	#0,	32(r1)	;r3 As==00, 0x0020(r1)
    5f1e:	2c 3c       	jmp	$+90     	;abs 0x5f78
    5f20:	17 41 1e 00 	mov	30(r1),	r7	;0x001e(r1)
    5f24:	08 41       	mov	r1,	r8	
    5f26:	38 50 1a 00 	add	#26,	r8	;#0x001a
    5f2a:	1e 41 28 00 	mov	40(r1),	r14	;0x0028(r1)
    5f2e:	0f 47       	mov	r7,	r15	
    5f30:	b0 12 86 60 	call	#0x6086	
    5f34:	0d 4f       	mov	r15,	r13	
    5f36:	3f 90 0a 00 	cmp	#10,	r15	;#0x000a
    5f3a:	05 34       	jge	$+12     	;abs 0x5f46
    5f3c:	7d 50 30 00 	add.b	#48,	r13	;#0x0030
    5f40:	c8 4d 00 00 	mov.b	r13,	0(r8)	;0x0000(r8)
    5f44:	0c 3c       	jmp	$+26     	;abs 0x5f5e
    5f46:	4d 4f       	mov.b	r15,	r13	
    5f48:	d1 b3 01 00 	bit.b	#1,	1(r1)	;r3 As==01, 0x0001(r1)
    5f4c:	03 24       	jz	$+8      	;abs 0x5f54
    5f4e:	7c 40 37 00 	mov.b	#55,	r12	;#0x0037
    5f52:	02 3c       	jmp	$+6      	;abs 0x5f58
    5f54:	7c 40 57 00 	mov.b	#87,	r12	;#0x0057
    5f58:	4c 5d       	add.b	r13,	r12	
    5f5a:	c8 4c 00 00 	mov.b	r12,	0(r8)	;0x0000(r8)
    5f5e:	06 48       	mov	r8,	r6	
    5f60:	36 53       	add	#-1,	r6	;r3 As==11
    5f62:	1e 41 28 00 	mov	40(r1),	r14	;0x0028(r1)
    5f66:	0f 47       	mov	r7,	r15	
    5f68:	b0 12 6c 60 	call	#0x606c	
    5f6c:	07 4f       	mov	r15,	r7	
    5f6e:	38 53       	add	#-1,	r8	;r3 As==11
    5f70:	0f 93       	tst	r15		
    5f72:	db 23       	jnz	$-72     	;abs 0x5f2a
    5f74:	81 43 1e 00 	mov	#0,	30(r1)	;r3 As==00, 0x001e(r1)
    5f78:	b1 90 0a 00 28 00 	cmp	#10,	40(r1)	;#0x000a, 0x0028(r1)
    5f7e:	02 24       	jz	$+6      	;abs 0x5f84
    5f80:	c1 43 02 00 	mov.b	#0,	2(r1)	;r3 As==00, 0x0002(r1)
    5f84:	c1 93 2e 00 	tst.b	46(r1)		;0x002e(r1)
    5f88:	2a 24       	jz	$+86     	;abs 0x5fde
    5f8a:	0f 41       	mov	r1,	r15	
    5f8c:	3f 50 1c 00 	add	#28,	r15	;#0x001c
    5f90:	81 4f 42 00 	mov	r15,	66(r1)	;0x0042(r1)
    5f94:	1a 41 1c 00 	mov	28(r1),	r10	;0x001c(r1)
    5f98:	8a 10       	swpb	r10		
    5f9a:	8a 11       	sxt	r10		
    5f9c:	8a 10       	swpb	r10		
    5f9e:	8a 11       	sxt	r10		
    5fa0:	81 4a 44 00 	mov	r10,	68(r1)	;0x0044(r1)
    5fa4:	81 46 46 00 	mov	r6,	70(r1)	;0x0046(r1)
    5fa8:	0a 46       	mov	r6,	r10	
    5faa:	8a 10       	swpb	r10		
    5fac:	8a 11       	sxt	r10		
    5fae:	8a 10       	swpb	r10		
    5fb0:	8a 11       	sxt	r10		
    5fb2:	81 4a 48 00 	mov	r10,	72(r1)	;0x0048(r1)
    5fb6:	1c 41 42 00 	mov	66(r1),	r12	;0x0042(r1)
    5fba:	1d 41 44 00 	mov	68(r1),	r13	;0x0044(r1)
    5fbe:	1c 81 46 00 	sub	70(r1),	r12	;0x0046(r1)
    5fc2:	1d 71 48 00 	subc	72(r1),	r13	;0x0048(r1)
    5fc6:	2c 83       	decd	r12		
    5fc8:	1c 91 26 00 	cmp	38(r1),	r12	;0x0026(r1)
    5fcc:	0e 2c       	jc	$+30     	;abs 0x5fea
    5fce:	e1 d3 01 00 	bis.b	#2,	1(r1)	;r3 As==10, 0x0001(r1)
    5fd2:	5e 41 26 00 	mov.b	38(r1),	r14	;0x0026(r1)
    5fd6:	4e 8c       	sub.b	r12,	r14	
    5fd8:	c1 4e 03 00 	mov.b	r14,	3(r1)	;0x0003(r1)
    5fdc:	06 3c       	jmp	$+14     	;abs 0x5fea
    5fde:	c1 93 2a 00 	tst.b	42(r1)		;0x002a(r1)
    5fe2:	03 24       	jz	$+8      	;abs 0x5fea
    5fe4:	91 41 26 00 30 00 	mov	38(r1),	48(r1)	;0x0026(r1), 0x0030(r1)
    5fea:	11 12 04 00 	push	4(r1)		;0x0004(r1)
    5fee:	11 12 04 00 	push	4(r1)		;0x0004(r1)
    5ff2:	1d 41 34 00 	mov	52(r1),	r13	;0x0034(r1)
    5ff6:	0e 46       	mov	r6,	r14	
    5ff8:	1e 53       	inc	r14		
    5ffa:	1f 41 3e 00 	mov	62(r1),	r15	;0x003e(r1)
    5ffe:	b0 12 36 58 	call	#0x5836	
    6002:	21 52       	add	#4,	r1	;r2 As==10
    6004:	81 5f 2c 00 	add	r15,	44(r1)	;0x002c(r1)
    6008:	0d 3c       	jmp	$+28     	;abs 0x6024
    600a:	7f 49       	mov.b	@r9+,	r15	
    600c:	8f 11       	sxt	r15		
    600e:	91 12 3c 00 	call	60(r1)		;0x003c(r1)
    6012:	0e 49       	mov	r9,	r14	
    6014:	0e 58       	add	r8,	r14	
    6016:	19 91 40 00 	cmp	64(r1),	r9	;0x0040(r1)
    601a:	f7 2b       	jnc	$-16     	;abs 0x600a
    601c:	81 49 3e 00 	mov	r9,	62(r1)	;0x003e(r1)
    6020:	81 4e 2c 00 	mov	r14,	44(r1)	;0x002c(r1)
    6024:	07 43       	clr	r7		
    6026:	0e 3c       	jmp	$+30     	;abs 0x6044
    6028:	91 41 26 00 30 00 	mov	38(r1),	48(r1)	;0x0026(r1), 0x0030(r1)
    602e:	d1 43 2e 00 	mov.b	#1,	46(r1)	;r3 As==01, 0x002e(r1)
    6032:	c1 43 2a 00 	mov.b	#0,	42(r1)	;r3 As==00, 0x002a(r1)
    6036:	03 3c       	jmp	$+8      	;abs 0x603e
    6038:	05 4e       	mov	r14,	r5	
    603a:	d1 43 2a 00 	mov.b	#1,	42(r1)	;r3 As==01, 0x002a(r1)
    603e:	81 43 26 00 	mov	#0,	38(r1)	;r3 As==00, 0x0026(r1)
    6042:	17 43       	mov	#1,	r7	;r3 As==01
    6044:	16 41 40 00 	mov	64(r1),	r6	;0x0040(r1)
    6048:	6e 46       	mov.b	@r6,	r14	
    604a:	4e 93       	tst.b	r14		
    604c:	02 24       	jz	$+6      	;abs 0x6052
    604e:	30 40 1a 5a 	br	#0x5a1a	
    6052:	1f 41 2c 00 	mov	44(r1),	r15	;0x002c(r1)
    6056:	31 50 4a 00 	add	#74,	r1	;#0x004a
    605a:	34 41       	pop	r4		
    605c:	35 41       	pop	r5		
    605e:	36 41       	pop	r6		
    6060:	37 41       	pop	r7		
    6062:	38 41       	pop	r8		
    6064:	39 41       	pop	r9		
    6066:	3a 41       	pop	r10		
    6068:	3b 41       	pop	r11		
    606a:	30 41       	ret			

0000606c <__udivhi3>:
    606c:	7c 40 10 00 	mov.b	#16,	r12	;#0x0010
    6070:	0d 4e       	mov	r14,	r13	
    6072:	0e 43       	clr	r14		
    6074:	0f 5f       	rla	r15		
    6076:	0e 6e       	rlc	r14		
    6078:	0e 9d       	cmp	r13,	r14	
    607a:	02 28       	jnc	$+6      	;abs 0x6080
    607c:	0e 8d       	sub	r13,	r14	
    607e:	1f d3       	bis	#1,	r15	;r3 As==01
    6080:	1c 83       	dec	r12		
    6082:	f8 23       	jnz	$-14     	;abs 0x6074
    6084:	30 41       	ret			

00006086 <__umodhi3>:
    6086:	b0 12 6c 60 	call	#0x606c	
    608a:	0f 4e       	mov	r14,	r15	
    608c:	30 41       	ret			

0000608e <__udivsi3>:
    608e:	0b 12       	push	r11		
    6090:	0a 12       	push	r10		
    6092:	09 12       	push	r9		
    6094:	79 40 20 00 	mov.b	#32,	r9	;#0x0020
    6098:	0a 4c       	mov	r12,	r10	
    609a:	0b 4d       	mov	r13,	r11	
    609c:	0c 43       	clr	r12		
    609e:	0d 43       	clr	r13		
    60a0:	0e 5e       	rla	r14		
    60a2:	0f 6f       	rlc	r15		
    60a4:	0c 6c       	rlc	r12		
    60a6:	0d 6d       	rlc	r13		
    60a8:	0d 9b       	cmp	r11,	r13	
    60aa:	06 28       	jnc	$+14     	;abs 0x60b8
    60ac:	02 20       	jnz	$+6      	;abs 0x60b2
    60ae:	0c 9a       	cmp	r10,	r12	
    60b0:	03 28       	jnc	$+8      	;abs 0x60b8
    60b2:	0c 8a       	sub	r10,	r12	
    60b4:	0d 7b       	subc	r11,	r13	
    60b6:	1e d3       	bis	#1,	r14	;r3 As==01
    60b8:	19 83       	dec	r9		
    60ba:	f2 23       	jnz	$-26     	;abs 0x60a0
    60bc:	39 41       	pop	r9		
    60be:	3a 41       	pop	r10		
    60c0:	3b 41       	pop	r11		
    60c2:	30 41       	ret			

000060c4 <__umodsi3>:
    60c4:	b0 12 8e 60 	call	#0x608e	
    60c8:	0e 4c       	mov	r12,	r14	
    60ca:	0f 4d       	mov	r13,	r15	
    60cc:	30 41       	ret			

000060ce <__xabi_udivmod64>:
    60ce:	07 12       	push	r7		
    60d0:	06 12       	push	r6		
    60d2:	05 12       	push	r5		
    60d4:	04 12       	push	r4		
    60d6:	30 12 40 00 	push	#64		;#0x0040
    60da:	04 48       	mov	r8,	r4	
    60dc:	05 49       	mov	r9,	r5	
    60de:	06 4a       	mov	r10,	r6	
    60e0:	07 4b       	mov	r11,	r7	
    60e2:	08 43       	clr	r8		
    60e4:	09 43       	clr	r9		
    60e6:	0a 43       	clr	r10		
    60e8:	0b 43       	clr	r11		
    60ea:	0c 5c       	rla	r12		
    60ec:	0d 6d       	rlc	r13		
    60ee:	0e 6e       	rlc	r14		
    60f0:	0f 6f       	rlc	r15		
    60f2:	08 68       	rlc	r8		
    60f4:	09 69       	rlc	r9		
    60f6:	0a 6a       	rlc	r10		
    60f8:	0b 6b       	rlc	r11		
    60fa:	0b 97       	cmp	r7,	r11	
    60fc:	0e 28       	jnc	$+30     	;abs 0x611a
    60fe:	08 20       	jnz	$+18     	;abs 0x6110
    6100:	0a 96       	cmp	r6,	r10	
    6102:	0b 28       	jnc	$+24     	;abs 0x611a
    6104:	05 20       	jnz	$+12     	;abs 0x6110
    6106:	09 95       	cmp	r5,	r9	
    6108:	08 28       	jnc	$+18     	;abs 0x611a
    610a:	02 20       	jnz	$+6      	;abs 0x6110
    610c:	08 94       	cmp	r4,	r8	
    610e:	05 28       	jnc	$+12     	;abs 0x611a
    6110:	08 84       	sub	r4,	r8	
    6112:	09 75       	subc	r5,	r9	
    6114:	0a 76       	subc	r6,	r10	
    6116:	0b 77       	subc	r7,	r11	
    6118:	1c d3       	bis	#1,	r12	;r3 As==01
    611a:	91 83 00 00 	dec	0(r1)		;0x0000(r1)
    611e:	e5 23       	jnz	$-52     	;abs 0x60ea
    6120:	21 53       	incd	r1		
    6122:	34 41       	pop	r4		
    6124:	35 41       	pop	r5		
    6126:	36 41       	pop	r6		
    6128:	37 41       	pop	r7		
    612a:	30 41       	ret			

0000612c <__udivdi3>:
    612c:	0b 12       	push	r11		
    612e:	0a 12       	push	r10		
    6130:	09 12       	push	r9		
    6132:	08 12       	push	r8		
    6134:	18 41 0a 00 	mov	10(r1),	r8	;0x000a(r1)
    6138:	19 41 0c 00 	mov	12(r1),	r9	;0x000c(r1)
    613c:	1a 41 0e 00 	mov	14(r1),	r10	;0x000e(r1)
    6140:	1b 41 10 00 	mov	16(r1),	r11	;0x0010(r1)
    6144:	b0 12 ce 60 	call	#0x60ce	
    6148:	38 41       	pop	r8		
    614a:	39 41       	pop	r9		
    614c:	3a 41       	pop	r10		
    614e:	3b 41       	pop	r11		
    6150:	30 41       	ret			

00006152 <__umoddi3>:
    6152:	0b 12       	push	r11		
    6154:	0a 12       	push	r10		
    6156:	09 12       	push	r9		
    6158:	08 12       	push	r8		
    615a:	18 41 0a 00 	mov	10(r1),	r8	;0x000a(r1)
    615e:	19 41 0c 00 	mov	12(r1),	r9	;0x000c(r1)
    6162:	1a 41 0e 00 	mov	14(r1),	r10	;0x000e(r1)
    6166:	1b 41 10 00 	mov	16(r1),	r11	;0x0010(r1)
    616a:	b0 12 ce 60 	call	#0x60ce	
    616e:	0c 48       	mov	r8,	r12	
    6170:	0d 49       	mov	r9,	r13	
    6172:	0e 4a       	mov	r10,	r14	
    6174:	0f 4b       	mov	r11,	r15	
    6176:	38 41       	pop	r8		
    6178:	39 41       	pop	r9		
    617a:	3a 41       	pop	r10		
    617c:	3b 41       	pop	r11		
    617e:	30 41       	ret			

00006180 <__udivmoddi4>:
    6180:	0b 12       	push	r11		
    6182:	0a 12       	push	r10		
    6184:	09 12       	push	r9		
    6186:	08 12       	push	r8		
    6188:	07 12       	push	r7		
    618a:	18 41 0c 00 	mov	12(r1),	r8	;0x000c(r1)
    618e:	19 41 0e 00 	mov	14(r1),	r9	;0x000e(r1)
    6192:	1a 41 10 00 	mov	16(r1),	r10	;0x0010(r1)
    6196:	1b 41 12 00 	mov	18(r1),	r11	;0x0012(r1)
    619a:	b0 12 ce 60 	call	#0x60ce	
    619e:	17 41 14 00 	mov	20(r1),	r7	;0x0014(r1)
    61a2:	87 48 00 00 	mov	r8,	0(r7)	;0x0000(r7)
    61a6:	87 49 02 00 	mov	r9,	2(r7)	;0x0002(r7)
    61aa:	87 4a 04 00 	mov	r10,	4(r7)	;0x0004(r7)
    61ae:	87 4b 06 00 	mov	r11,	6(r7)	;0x0006(r7)
    61b2:	37 41       	pop	r7		
    61b4:	38 41       	pop	r8		
    61b6:	39 41       	pop	r9		
    61b8:	3a 41       	pop	r10		
    61ba:	3b 41       	pop	r11		
    61bc:	30 41       	ret			

000061be <_unexpected_>:
    61be:	00 13       	reti			

Disassembly of section .vectors:

0000ffe0 <__ivtbl_16>:
    ffe0:	4c 44 4c 44 f4 56 6e 56 4c 44 e6 4f c8 4f 4c 44     LDLD.VnVLD.O.OLD
    fff0:	4c 44 4c 44 4c 44 4c 44 2a 50 0c 50 4c 44 00 40     LDLDLDLD*P.PLD.@
